
gameboy.elf:     file format elf32-littlenios2
gameboy.elf
architecture: nios2:r1, flags 0x00000112:
EXEC_P, HAS_SYMS, D_PAGED
start address 0x00000230

Program Header:
    LOAD off    0x00001000 vaddr 0x00000000 paddr 0x00000000 align 2**12
         filesz 0x00000020 memsz 0x00000020 flags r-x
    LOAD off    0x00001020 vaddr 0x00000020 paddr 0x00000020 align 2**12
         filesz 0x0001c6ac memsz 0x0001c6ac flags r-x
    LOAD off    0x0001d6cc vaddr 0x0001c6cc paddr 0x0001e1c8 align 2**12
         filesz 0x00001afc memsz 0x00001afc flags rw-
    LOAD off    0x0001fcc4 vaddr 0x0001fcc4 paddr 0x0001fcc4 align 2**12
         filesz 0x00000000 memsz 0x00000564 flags rw-

Sections:
Idx Name          Size      VMA       LMA       File off  Algn
  0 .entry        00000020  00000000  00000000  00001000  2**5
                  CONTENTS, ALLOC, LOAD, READONLY, CODE
  1 .exceptions   00000210  00000020  00000020  00001020  2**2
                  CONTENTS, ALLOC, LOAD, READONLY, CODE
  2 .text         0001c0f4  00000230  00000230  00001230  2**2
                  CONTENTS, ALLOC, LOAD, READONLY, CODE
  3 .rodata       000003a8  0001c324  0001c324  0001d324  2**2
                  CONTENTS, ALLOC, LOAD, READONLY, DATA
  4 .rwdata       00001afc  0001c6cc  0001e1c8  0001d6cc  2**2
                  CONTENTS, ALLOC, LOAD, DATA, SMALL_DATA
  5 .bss          00000564  0001fcc4  0001fcc4  0001fcc4  2**2
                  ALLOC, SMALL_DATA
  6 .sdram        00000000  00020228  00020228  0001f1c8  2**0
                  CONTENTS
  7 .comment      00000023  00000000  00000000  0001f1c8  2**0
                  CONTENTS, READONLY
  8 .debug_aranges 00000e98  00000000  00000000  0001f1f0  2**3
                  CONTENTS, READONLY, DEBUGGING
  9 .debug_info   00028eb1  00000000  00000000  00020088  2**0
                  CONTENTS, READONLY, DEBUGGING
 10 .debug_abbrev 0000914d  00000000  00000000  00048f39  2**0
                  CONTENTS, READONLY, DEBUGGING
 11 .debug_line   0000c98f  00000000  00000000  00052086  2**0
                  CONTENTS, READONLY, DEBUGGING
 12 .debug_frame  00006004  00000000  00000000  0005ea18  2**2
                  CONTENTS, READONLY, DEBUGGING
 13 .debug_str    00003ff0  00000000  00000000  00064a1c  2**0
                  CONTENTS, READONLY, DEBUGGING
 14 .debug_loc    0001786c  00000000  00000000  00068a0c  2**0
                  CONTENTS, READONLY, DEBUGGING
 15 .debug_alt_sim_info 00000010  00000000  00000000  00080278  2**2
                  CONTENTS, READONLY, DEBUGGING
 16 .debug_ranges 00001900  00000000  00000000  00080288  2**3
                  CONTENTS, READONLY, DEBUGGING
 17 .thread_model 00000003  00000000  00000000  00086e3a  2**0
                  CONTENTS, READONLY
 18 .cpu          0000000c  00000000  00000000  00086e3d  2**0
                  CONTENTS, READONLY
 19 .qsys         00000001  00000000  00000000  00086e49  2**0
                  CONTENTS, READONLY
 20 .simulation_enabled 00000001  00000000  00000000  00086e4a  2**0
                  CONTENTS, READONLY
 21 .sysid_hash   00000004  00000000  00000000  00086e4b  2**0
                  CONTENTS, READONLY
 22 .sysid_base   00000004  00000000  00000000  00086e4f  2**0
                  CONTENTS, READONLY
 23 .sysid_time   00000004  00000000  00000000  00086e53  2**0
                  CONTENTS, READONLY
 24 .stderr_dev   0000000b  00000000  00000000  00086e57  2**0
                  CONTENTS, READONLY
 25 .stdin_dev    0000000b  00000000  00000000  00086e62  2**0
                  CONTENTS, READONLY
 26 .stdout_dev   0000000b  00000000  00000000  00086e6d  2**0
                  CONTENTS, READONLY
 27 .sopc_system_name 00000009  00000000  00000000  00086e78  2**0
                  CONTENTS, READONLY
 28 .quartus_project_dir 0000002c  00000000  00000000  00086e81  2**0
                  CONTENTS, READONLY
 29 .jdi          00005240  00000000  00000000  00086ead  2**0
                  CONTENTS, READONLY
 30 .sopcinfo     0007252f  00000000  00000000  0008c0ed  2**0
                  CONTENTS, READONLY
SYMBOL TABLE:
00000000 l    d  .entry	00000000 .entry
00000020 l    d  .exceptions	00000000 .exceptions
00000230 l    d  .text	00000000 .text
0001c324 l    d  .rodata	00000000 .rodata
0001c6cc l    d  .rwdata	00000000 .rwdata
0001fcc4 l    d  .bss	00000000 .bss
00020228 l    d  .sdram	00000000 .sdram
00000000 l    d  .comment	00000000 .comment
00000000 l    d  .debug_aranges	00000000 .debug_aranges
00000000 l    d  .debug_info	00000000 .debug_info
00000000 l    d  .debug_abbrev	00000000 .debug_abbrev
00000000 l    d  .debug_line	00000000 .debug_line
00000000 l    d  .debug_frame	00000000 .debug_frame
00000000 l    d  .debug_str	00000000 .debug_str
00000000 l    d  .debug_loc	00000000 .debug_loc
00000000 l    d  .debug_alt_sim_info	00000000 .debug_alt_sim_info
00000000 l    d  .debug_ranges	00000000 .debug_ranges
00000000 l    df *ABS*	00000000 ../gameboy_bsp//obj/HAL/src/crt0.o
00000268 l       .text	00000000 alt_after_alt_main
00000000 l    df *ABS*	00000000 alt_irq_handler.c
00000000 l    df *ABS*	00000000 alt_instruction_exception_entry.c
00000000 l    df *ABS*	00000000 main.c
00000000 l    df *ABS*	00000000 lib2-divmod.c
00000000 l    df *ABS*	00000000 lib2-mul.c
00000000 l    df *ABS*	00000000 exit.c
00000000 l    df *ABS*	00000000 impure.c
0001c6cc l     O .rwdata	00000424 impure_data
00000000 l    df *ABS*	00000000 printf.c
00000000 l    df *ABS*	00000000 puts.c
00000000 l    df *ABS*	00000000 strlen.c
00000000 l    df *ABS*	00000000 vfprintf.c
0001c416 l     O .rodata	00000010 zeroes.4404
0000f42c l     F .text	000000bc __sbprintf
0001c426 l     O .rodata	00000010 blanks.4403
00000000 l    df *ABS*	00000000 wsetup.c
00000000 l    df *ABS*	00000000 __call_atexit.c
00000000 l    df *ABS*	00000000 dtoa.c
0000f7bc l     F .text	00000228 quorem
00000000 l    df *ABS*	00000000 fflush.c
00000000 l    df *ABS*	00000000 findfp.c
00011314 l     F .text	00000008 __fp_unlock
00011328 l     F .text	0000019c __sinit.part.1
000114c4 l     F .text	00000008 __fp_lock
00000000 l    df *ABS*	00000000 mallocr.c
00000000 l    df *ABS*	00000000 fvwrite.c
00000000 l    df *ABS*	00000000 fwalk.c
00000000 l    df *ABS*	00000000 locale.c
0001cb10 l     O .rwdata	00000020 lc_ctype_charset
0001caf0 l     O .rwdata	00000020 lc_message_charset
0001cb30 l     O .rwdata	00000038 lconv
00000000 l    df *ABS*	00000000 makebuf.c
00000000 l    df *ABS*	00000000 mallocr.c
00000000 l    df *ABS*	00000000 memchr.c
00000000 l    df *ABS*	00000000 memcpy.c
00000000 l    df *ABS*	00000000 memmove.c
00000000 l    df *ABS*	00000000 memset.c
00000000 l    df *ABS*	00000000 mprec.c
0001c454 l     O .rodata	0000000c p05.2768
00000000 l    df *ABS*	00000000 mallocr.c
00000000 l    df *ABS*	00000000 s_fpclassify.c
00000000 l    df *ABS*	00000000 sbrkr.c
00000000 l    df *ABS*	00000000 stdio.c
00000000 l    df *ABS*	00000000 strcmp.c
00000000 l    df *ABS*	00000000 vfprintf.c
00014998 l     F .text	000000fc __sprint_r.part.0
0001c578 l     O .rodata	00000010 zeroes.4349
00015fd4 l     F .text	000000bc __sbprintf
0001c588 l     O .rodata	00000010 blanks.4348
00000000 l    df *ABS*	00000000 writer.c
00000000 l    df *ABS*	00000000 closer.c
00000000 l    df *ABS*	00000000 mallocr.c
00000000 l    df *ABS*	00000000 fclose.c
00000000 l    df *ABS*	00000000 fputwc.c
00000000 l    df *ABS*	00000000 fstatr.c
00000000 l    df *ABS*	00000000 int_errno.c
00000000 l    df *ABS*	00000000 isattyr.c
00000000 l    df *ABS*	00000000 lseekr.c
00000000 l    df *ABS*	00000000 readr.c
00000000 l    df *ABS*	00000000 wbuf.c
00000000 l    df *ABS*	00000000 wcrtomb.c
00000000 l    df *ABS*	00000000 wctomb_r.c
00000000 l    df *ABS*	00000000 libgcc2.c
00000000 l    df *ABS*	00000000 libgcc2.c
00000000 l    df *ABS*	00000000 adddf3.c
00000000 l    df *ABS*	00000000 divdf3.c
00000000 l    df *ABS*	00000000 eqdf2.c
00000000 l    df *ABS*	00000000 gedf2.c
00000000 l    df *ABS*	00000000 ledf2.c
00000000 l    df *ABS*	00000000 muldf3.c
00000000 l    df *ABS*	00000000 subdf3.c
00000000 l    df *ABS*	00000000 fixdfsi.c
00000000 l    df *ABS*	00000000 floatsidf.c
00000000 l    df *ABS*	00000000 floatunsidf.c
00000000 l    df *ABS*	00000000 libgcc2.c
00000000 l    df *ABS*	00000000 libgcc2.c
00000000 l    df *ABS*	00000000 alt_close.c
00019e40 l     F .text	0000003c alt_get_errno
00000000 l    df *ABS*	00000000 alt_dev.c
00019f54 l     F .text	0000002c alt_dev_null_write
00000000 l    df *ABS*	00000000 alt_errno.c
00000000 l    df *ABS*	00000000 alt_exit.c
00000000 l    df *ABS*	00000000 alt_fstat.c
00019fb4 l     F .text	0000003c alt_get_errno
00000000 l    df *ABS*	00000000 alt_isatty.c
0001a0a8 l     F .text	0000003c alt_get_errno
00000000 l    df *ABS*	00000000 alt_load.c
0001a190 l     F .text	00000068 alt_load_section
00000000 l    df *ABS*	00000000 alt_lseek.c
0001a27c l     F .text	0000003c alt_get_errno
00000000 l    df *ABS*	00000000 alt_main.c
00000000 l    df *ABS*	00000000 alt_malloc_lock.c
00000000 l    df *ABS*	00000000 alt_read.c
0001a458 l     F .text	0000003c alt_get_errno
00000000 l    df *ABS*	00000000 alt_release_fd.c
00000000 l    df *ABS*	00000000 alt_sbrk.c
0001e1b8 l     O .rwdata	00000004 heap_end
00000000 l    df *ABS*	00000000 alt_write.c
0001a6cc l     F .text	0000003c alt_get_errno
00000000 l    df *ABS*	00000000 alt_sys_init.c
0001a808 l     F .text	00000034 alt_dev_reg
0001d118 l     O .rwdata	00001060 jtag_uart_0
00000000 l    df *ABS*	00000000 altera_avalon_jtag_uart_fd.c
00000000 l    df *ABS*	00000000 altera_avalon_jtag_uart_init.c
0001aae8 l     F .text	0000020c altera_avalon_jtag_uart_irq
0001acf4 l     F .text	000000a0 altera_avalon_jtag_uart_timeout
00000000 l    df *ABS*	00000000 altera_avalon_jtag_uart_ioctl.c
00000000 l    df *ABS*	00000000 altera_avalon_jtag_uart_read.c
00000000 l    df *ABS*	00000000 altera_avalon_jtag_uart_write.c
00000000 l    df *ABS*	00000000 alt_alarm_start.c
00000000 l    df *ABS*	00000000 alt_dcache_flush_all.c
00000000 l    df *ABS*	00000000 alt_dev_llist_insert.c
0001b478 l     F .text	0000003c alt_get_errno
00000000 l    df *ABS*	00000000 alt_do_ctors.c
00000000 l    df *ABS*	00000000 alt_do_dtors.c
00000000 l    df *ABS*	00000000 alt_icache_flush_all.c
00000000 l    df *ABS*	00000000 alt_iic.c
00000000 l    df *ABS*	00000000 alt_iic_isr_register.c
00000000 l    df *ABS*	00000000 alt_io_redirect.c
0001b8d8 l     F .text	000000e4 alt_open_fd
00000000 l    df *ABS*	00000000 alt_irq_vars.c
00000000 l    df *ABS*	00000000 alt_open.c
0001ba38 l     F .text	0000003c alt_get_errno
0001ba74 l     F .text	000000ec alt_file_locked
00000000 l    df *ABS*	00000000 alt_tick.c
00000000 l    df *ABS*	00000000 altera_nios2_gen2_irq.c
00000000 l    df *ABS*	00000000 alt_find_dev.c
00000000 l    df *ABS*	00000000 alt_find_file.c
00000000 l    df *ABS*	00000000 alt_get_fd.c
00000000 l    df *ABS*	00000000 atexit.c
00000000 l    df *ABS*	00000000 memcmp.c
00000000 l    df *ABS*	00000000 __atexit.c
0001fcfc g     O .bss	00000004 alt_instruction_exception_handler
0000aef4 g     F .text	00000038 xC4
0001e178 g     O .rwdata	00000004 base
00013fdc g     F .text	00000074 _mprec_log10
0000a2c4 g     F .text	0000003c x8D
000097d8 g     F .text	0000003c x5F
000092e0 g     F .text	0000003c x4A
000140c8 g     F .text	0000008c __any_on
00016588 g     F .text	00000054 _isatty_r
0001c460 g     O .rodata	00000028 __mprec_tinytens
0001a394 g     F .text	0000007c alt_main
000033a0 g     F .text	00000088 LDrrar
0000cfc8 g     F .text	000000c0 _puts_r
00020128 g     O .bss	00000100 alt_irq
00009578 g     F .text	0000003c x55
000165dc g     F .text	00000060 _lseek_r
00007f30 g     F .text	0000003c x01
000087a0 g     F .text	00000038 x1E
0000ae88 g     F .text	00000038 xC2
0000b044 g     F .text	00000038 xCA
0001e1c8 g       *ABS*	00000000 __flash_rwdata_start
0000b6d0 g     F .text	0000003c xF1
0000abdc g     F .text	0000003c xB6
00018818 g     F .text	00000088 .hidden __eqdf2
0001e182 g     O .rwdata	00000002 TIMA_addr
0000ada0 g     F .text	0000003c xBE
00002df4 g     F .text	00000030 pause
00004f48 g     F .text	00000078 SUBrra
0000988c g     F .text	0000003c x62
000014c0 g     F .text	000000d8 copySpriteTileLine
00009a70 g     F .text	0000003c x6A
00008ab4 g     F .text	00000038 x28
0000b278 g     F .text	00000034 xD6
00020228 g       *ABS*	00000000 __alt_heap_start
0000aa8c g     F .text	00000038 xB0
0000cf8c g     F .text	0000003c printf
00003f98 g     F .text	00000070 INCsp
00002534 g     F .text	0000003c reset_CPU
000167f4 g     F .text	0000009c _wcrtomb_r
00009d1c g     F .text	00000040 x75
00008cb0 g     F .text	00000038 x30
0000ad30 g     F .text	00000038 xBC
0000b5b8 g     F .text	0000003c xE9
00014858 g     F .text	0000005c __sseek
00011674 g     F .text	00000010 __sinit
0001669c g     F .text	00000140 __swbuf_r
00008f74 g     F .text	00000034 x3B
00012148 g     F .text	0000007c _setlocale_r
000114cc g     F .text	00000078 __sfmoreglue
0001a434 g     F .text	00000024 __malloc_unlock
0000386c g     F .text	000000c8 LDrnna
000041b0 g     F .text	00000074 DECsp
00009b60 g     F .text	00000040 x6E
00008b98 g     F .text	0000003c x2B
00007340 g     F .text	00000094 JRn
00006e64 g     F .text	000000b0 SWAPrra
00003588 g     F .text	00000084 LDrar
00012e18 g     F .text	0000015c memmove
0000b42c g     F .text	00000038 xE0
0000a24c g     F .text	0000003c x8B
0000044c g     F .text	00000168 initGPU
0000b89c g     F .text	00000038 xFA
0000addc g     F .text	00000038 xBF
00006c1c g     F .text	000000a4 SETirra
0001165c g     F .text	00000018 _cleanup
00009f38 g     F .text	00000040 x7E
0001309c g     F .text	000000a8 _Balloc
00006740 g     F .text	000000f8 SLArra
0000446c g     F .text	0000006c ADDrr
00002f18 g     F .text	00000038 i3
0000ae4c g     F .text	0000003c xC1
000188a0 g     F .text	000000dc .hidden __gtdf2
0001be60 g     F .text	00000024 altera_nios2_gen2_irq_init
00000f3c g     F .text	000000b8 copyLineToBuffer
000071d4 g     F .text	000000e4 JPccnn
00000000 g     F .entry	0000000c __reset
00009850 g     F .text	0000003c x61
00000020 g       *ABS*	00000000 __flash_exceptions_start
00002078 g     F .text	00000090 getPalette
00007e2c g     F .text	00000048 DI
00004008 g     F .text	00000100 INCr
0001652c g     F .text	0000005c _fstat_r
0001fce0 g     O .bss	00000004 errno
00007de4 g     F .text	00000048 HALT
000147d4 g     F .text	00000008 __seofread
0000a938 g     F .text	00000038 xAA
0000a774 g     F .text	00000038 xA2
0001fce8 g     O .bss	00000004 alt_argv
00026178 g       *ABS*	00000000 _gp
0000847c g     F .text	0000003c x13
0000a540 g     F .text	00000038 x98
00009500 g     F .text	0000003c x53
0000b974 g     F .text	0000136c initOpcodes
0000922c g     F .text	0000003c x47
0000b824 g     F .text	0000003c xF8
0000b70c g     F .text	0000003c xF2
0000ac18 g     F .text	00000038 xB7
00002918 g     F .text	000000d0 rr8
00003738 g     F .text	0000006c LDsprr
0001cf98 g     O .rwdata	00000180 alt_fd_list
0000b7ec g     F .text	00000038 xF7
00005644 g     F .text	000000a4 ANDn
00009dd0 g     F .text	0000003c x78
00008d80 g     F .text	00000034 x33
0001be84 g     F .text	00000090 alt_find_dev
00012cd0 g     F .text	00000148 memcpy
00008e9c g     F .text	00000038 x38
000074b4 g     F .text	000000d8 POPrr
00004794 g     F .text	00000130 ADDspn
0001131c g     F .text	0000000c _cleanup_r
00019c58 g     F .text	000000dc .hidden __floatsidf
00009630 g     F .text	0000003c x58
00008730 g     F .text	00000038 x1C
0000a02c g     F .text	0000003c x82
00008148 g     F .text	00000034 x08
0001b9bc g     F .text	0000007c alt_io_redirect
0001897c g     F .text	000000f4 .hidden __ltdf2
0000a300 g     F .text	00000040 x8E
0000931c g     F .text	0000003c x4B
0001c324 g       *ABS*	00000000 __DTOR_END__
0000b93c g     F .text	00000038 xFF
0000d088 g     F .text	00000014 puts
0001c0e0 g     F .text	0000009c alt_exception_cause_generated_bad_addr
0000997c g     F .text	00000040 x66
0000899c g     F .text	0000003c x23
0000a854 g     F .text	0000003c xA6
0000a7ac g     F .text	00000038 xA3
00005964 g     F .text	00000064 CPr
000146b8 g     F .text	00000074 __fpclassifyd
0000b2e4 g     F .text	00000038 xD8
00013f38 g     F .text	000000a4 __ratio
00015fb8 g     F .text	0000001c __vfiprintf_internal
00007ef8 g     F .text	00000038 x00
0000a0a4 g     F .text	0000003c x84
000090c0 g     F .text	0000003c x41
0001aeec g     F .text	0000021c altera_avalon_jtag_uart_read
0000cf5c g     F .text	00000030 _printf_r
00008240 g     F .text	00000038 x0C
0000ce40 g     F .text	00000064 .hidden __udivsi3
0001a0e4 g     F .text	000000ac isatty
00005c94 g     F .text	0000011c RRCrra
0001c4b0 g     O .rodata	000000c8 __mprec_tens
00000364 g     F .text	0000004c writeData
00004d0c g     F .text	00000160 ADDrrra
00007ebc g     F .text	0000003c RETI
0000b2ac g     F .text	00000038 xD7
000121c4 g     F .text	0000000c __locale_charset
0000a508 g     F .text	00000038 x97
000094c4 g     F .text	0000003c x52
00000ea8 g     F .text	00000094 copyBGTileLine
0000aac4 g     F .text	00000038 xB1
00002ee0 g     F .text	00000038 i2
0000a5e8 g     F .text	00000038 x9B
0001fcdc g     O .bss	00000004 __malloc_top_pad
0000975c g     F .text	0000003c x5D
0001e190 g     O .rwdata	00000004 __mb_cur_max
000121f4 g     F .text	0000000c _localeconv_r
000134d0 g     F .text	0000003c __i2b
00011af8 g     F .text	000004c8 __sfvwrite_r
0000b23c g     F .text	0000003c xD5
00005db0 g     F .text	000000e8 RLCr
00007fe8 g     F .text	00000038 x04
0001472c g     F .text	00000054 _sbrk_r
00006cc0 g     F .text	00000088 RESir
00001144 g     F .text	0000037c drawSprites
00002c78 g     F .text	00000120 wr16
00004108 g     F .text	000000a8 DECrr
000048c4 g     F .text	00000170 _ADDrrn
0001663c g     F .text	00000060 _read_r
000029e8 g     F .text	00000194 rr16
0001e1b0 g     O .rwdata	00000004 alt_max_fd
0000a3b4 g     F .text	00000038 x91
00008560 g     F .text	000000d8 x17
000096e4 g     F .text	0000003c x5B
00016220 g     F .text	000000f0 _fclose_r
000112e4 g     F .text	00000030 fflush
0001fcd8 g     O .bss	00000004 __malloc_max_sbrked_mem
0000b464 g     F .text	0000003c xE1
00008df0 g     F .text	0000003c x35
00004224 g     F .text	00000118 DECr
0001759c g     F .text	000008ac .hidden __adddf3
0000a4cc g     F .text	0000003c x96
00009488 g     F .text	0000003c x51
000056e8 g     F .text	000000a4 ANDrra
00013ce0 g     F .text	0000010c __b2d
00008c7c g     F .text	00000034 x2F
00016fd8 g     F .text	000005c4 .hidden __umoddi3
0001a2b8 g     F .text	000000dc lseek
00006d48 g     F .text	000000a8 RESirra
0001e188 g     O .rwdata	00000004 _global_impure_ptr
00009410 g     F .text	0000003c x4F
00014154 g     F .text	00000564 _realloc_r
00009d5c g     F .text	00000034 x76
00008ce8 g     F .text	00000034 x31
00020228 g       *ABS*	00000000 __bss_end
00007ac8 g     F .text	000000a0 CCF
0001b7e8 g     F .text	000000f0 alt_iic_isr_register
0001bd58 g     F .text	00000108 alt_tick
000169dc g     F .text	000005fc .hidden __udivdi3
00004ed0 g     F .text	00000078 SUBn
00016488 g     F .text	00000024 _fputwc_r
00002020 g     F .text	00000058 getPixel
0001c488 g     O .rodata	00000028 __mprec_bigtens
000132b4 g     F .text	00000104 __s2b
0000afd8 g     F .text	00000038 xC8
00019d34 g     F .text	000000a8 .hidden __floatunsidf
000073d4 g     F .text	000000e0 PUSHrr
00009720 g     F .text	0000003c x5C
00013a20 g     F .text	00000060 __mcmp
000082e8 g     F .text	000000c8 x0F
0000654c g     F .text	0000011c SRArra
0000283c g     F .text	000000dc executeOpcode
00011694 g     F .text	00000018 __fp_lock_all
0001b79c g     F .text	0000004c alt_ic_irq_enabled
0000758c g     F .text	000000ec RSTn
00005e98 g     F .text	00000108 RLCrra
000037a4 g     F .text	000000c8 LDnnar
0001bcbc g     F .text	0000009c alt_alarm_stop
0000b120 g     F .text	00000038 xCF
0000b07c g     F .text	00000038 xCC
0001fcf0 g     O .bss	00000004 alt_irq_active
0000acc0 g     F .text	00000038 xBA
00008e2c g     F .text	0000003c x36
000000fc g     F .exceptions	000000d4 alt_irq_handler
0001cf70 g     O .rwdata	00000028 alt_dev_null
0000360c g     F .text	0000007c LDrra
00009814 g     F .text	0000003c x60
00009ae8 g     F .text	0000003c x6C
000084b8 g     F .text	00000038 x14
0000a37c g     F .text	00000038 x90
00008528 g     F .text	00000038 x16
000034a4 g     F .text	0000007c LDrn
00009e0c g     F .text	0000003c x79
00008db4 g     F .text	0000003c x34
0001b458 g     F .text	00000020 alt_dcache_flush_all
000133b8 g     F .text	00000068 __hi0bits
00019bd8 g     F .text	00000080 .hidden __fixdfsi
000002a8 g     F .text	000000bc dmaTransfer
0000aa54 g     F .text	00000038 xAF
000031a4 g     F .text	00000030 enableInterrupts
00008c44 g     F .text	00000038 x2E
00007750 g     F .text	00000104 RETcc
0001e1c8 g       *ABS*	00000000 __ram_rwdata_end
0000a198 g     F .text	0000003c x88
000091b0 g     F .text	0000003c x45
0001e1a8 g     O .rwdata	00000008 alt_dev_list
0000b698 g     F .text	00000038 xF0
0000aba4 g     F .text	00000038 xB5
0001a708 g     F .text	00000100 write
00009ec0 g     F .text	0000003c x7C
0000b584 g     F .text	00000034 xE8
00003e84 g     F .text	00000114 INCrra
0000a9a8 g     F .text	00000038 xAC
0001c6cc g       *ABS*	00000000 __ram_rodata_end
00019ff0 g     F .text	000000b8 fstat
0001897c g     F .text	000000f4 .hidden __ledf2
0000690c g     F .text	000000f4 SRLrra
00008278 g     F .text	00000038 x0D
0000ab34 g     F .text	00000038 xB3
00013798 g     F .text	00000140 __pow5mult
0000acf8 g     F .text	00000038 xBB
00014aac g     F .text	0000150c ___vfiprintf_internal_r
0001fcd0 g     O .bss	00000004 __nlocale_changed
0000cea4 g     F .text	00000058 .hidden __umodsi3
00020228 g       *ABS*	00000000 end
0000b010 g     F .text	00000034 xC9
0000aec0 g     F .text	00000034 xC3
0000af2c g     F .text	0000003c xC5
0000b748 g     F .text	00000034 xF3
0000ac50 g     F .text	00000038 xB8
00006df0 g     F .text	00000074 SWAPr
00009904 g     F .text	0000003c x64
000088fc g     F .text	0000003c x21
0000b660 g     F .text	00000038 xEF
0000a900 g     F .text	00000038 xA9
0001aa28 g     F .text	000000c0 altera_avalon_jtag_uart_init
000001d0 g     F .exceptions	00000060 alt_instruction_exception_entry
0001c324 g       *ABS*	00000000 __CTOR_LIST__
000005b4 g     F .text	00000208 gpuUpdate
04000000 g       *ABS*	00000000 __alt_stack_pointer
0000a658 g     F .text	00000038 x9D
00019ddc g     F .text	00000064 .hidden __clzsi2
00004684 g     F .text	000000a4 ADDrrrr
0001b108 g     F .text	00000224 altera_avalon_jtag_uart_write
00006f14 g     F .text	0000005c _SWAPn
00011684 g     F .text	00000004 __sfp_lock_acquire
00012bec g     F .text	000000e4 memchr
00009cdc g     F .text	00000040 x74
0000d134 g     F .text	000022dc ___vfprintf_internal_r
00005a40 g     F .text	00000078 CPrra
000117e8 g     F .text	00000310 _free_r
0000a890 g     F .text	00000038 xA7
000121d0 g     F .text	00000010 __locale_mb_cur_max
0000a970 g     F .text	00000038 xAB
00008c0c g     F .text	00000038 x2D
0000f63c g     F .text	00000180 __call_exitprocs
000095f4 g     F .text	0000003c x57
000086f4 g     F .text	0000003c x1B
00009ff0 g     F .text	0000003c x81
00008090 g     F .text	000000b8 x07
0001fccc g     O .bss	00000004 __mlocale_changed
0001e194 g     O .rwdata	00000004 __malloc_sbrk_base
00000230 g     F .text	0000003c _start
0001fcf4 g     O .bss	00000004 _alt_tick_rate
00002f88 g     F .text	00000168 checkInterrupt
000053d0 g     F .text	0000009c ORr
00009f78 g     F .text	0000003c x7F
00008f10 g     F .text	00000064 x3A
00009b24 g     F .text	0000003c x6D
00008b34 g     F .text	00000064 x2A
00004a34 g     F .text	0000006c ADCrr
0001e186 g     O .rwdata	00000002 TAC_addr
00003428 g     F .text	0000007c LDrrra
000138d8 g     F .text	00000148 __lshift
0001fcf8 g     O .bss	00000004 _alt_nticks
0000a620 g     F .text	00000038 x9C
0001a494 g     F .text	00000104 read
0001a874 g     F .text	00000050 alt_sys_init
0000b0e8 g     F .text	00000038 xCE
00003688 g     F .text	000000b0 LDspnn
0000aafc g     F .text	00000038 xB2
00002570 g     F .text	00000074 get_RAM_size
0001c20c g     F .text	00000118 __register_exitproc
00003c68 g     F .text	00000050 _LDav
00002108 g     F .text	000000c4 render
00005158 g     F .text	00000064 SBCr
00005264 g     F .text	0000016c _SBCn
0001350c g     F .text	0000028c __multiply
0001ad94 g     F .text	00000068 altera_avalon_jtag_uart_close
0000cefc g     F .text	00000028 .hidden __mulsi3
0001c6cc g       *ABS*	00000000 __ram_rwdata_start
0001c324 g       *ABS*	00000000 __ram_rodata_start
0001fd00 g     O .bss	00000028 __malloc_current_mallinfo
00013dec g     F .text	0000014c __d2b
00003934 g     F .text	00000174 LDrrspn
00002dc8 g     F .text	0000002c unHalt
0000b62c g     F .text	00000034 xEE
0000a8c8 g     F .text	00000038 xA8
0000b158 g     F .text	00000038 xD0
00005510 g     F .text	000000a4 ORrra
0000a45c g     F .text	00000038 x94
0000b388 g     F .text	00000038 xDC
00000940 g     F .text	0000007c drawScanLine
0001a8c4 g     F .text	00000060 altera_avalon_jtag_uart_read_fd
0001c01c g     F .text	000000c4 alt_get_fd
00007f6c g     F .text	00000040 x02
00006f70 g     F .text	000000a4 JPnn
000082b0 g     F .text	00000038 x0E
000003b0 g     F .text	0000009c resetMemory
000160f0 g     F .text	00000054 _close_r
000009bc g     F .text	000000bc drawFrame
0001c190 g     F .text	0000007c memcmp
000095b4 g     F .text	00000040 x56
000086b4 g     F .text	00000040 x1A
0001a984 g     F .text	00000050 altera_avalon_jtag_uart_close_fd
00020228 g       *ABS*	00000000 __alt_stack_base
00003bc8 g     F .text	000000a0 LDrran
0001a9d4 g     F .text	00000054 altera_avalon_jtag_uart_ioctl_fd
0000af68 g     F .text	00000038 xC6
0000f4e8 g     F .text	00000154 __swsetup_r
00002720 g     F .text	000000d0 fetch
00017e48 g     F .text	000009d0 .hidden __divdf3
00011544 g     F .text	00000118 __sfp
00014050 g     F .text	00000078 __copybits
0001cb68 g     O .rwdata	00000408 __malloc_av_
00008aec g     F .text	00000048 x29
00011690 g     F .text	00000004 __sinit_lock_release
00018a70 g     F .text	0000086c .hidden __muldf3
0000a690 g     F .text	0000003c x9E
00014780 g     F .text	00000054 __sread
0000a1d4 g     F .text	0000003c x89
000091ec g     F .text	00000040 x46
0001bf14 g     F .text	00000108 alt_find_file
000092a4 g     F .text	0000003c x49
00008204 g     F .text	0000003c x0B
00006ac0 g     F .text	000000d8 BITirra
000024d4 g     F .text	00000060 init_CPU
0001b4b4 g     F .text	000000a4 alt_dev_llist_insert
0001a410 g     F .text	00000024 __malloc_lock
0001a61c g     F .text	000000b0 sbrk
0000a704 g     F .text	00000038 xA0
00003154 g     F .text	00000050 isInterruptEnable
000031d4 g     F .text	0000002c disableInterrupts
00011288 g     F .text	0000005c _fflush_r
00016144 g     F .text	000000dc _calloc_r
0000a9e0 g     F .text	00000038 xAD
00003aa8 g     F .text	00000120 LDnnsp
0000843c g     F .text	00000040 x12
000032ec g     F .text	000000b4 LDrrnn
0000578c g     F .text	00000090 XORr
0000a424 g     F .text	00000038 x93
0000866c g     F .text	00000048 x19
00006450 g     F .text	000000fc SRAr
0000b0b4 g     F .text	00000034 xCD
0001fcc4 g       *ABS*	00000000 __bss_start
0000b7b8 g     F .text	00000034 xF6
00012f74 g     F .text	00000128 memset
00009d90 g     F .text	00000040 x77
00008d1c g     F .text	00000064 x32
00009c9c g     F .text	00000040 x73
000021cc g     F .text	00000034 initTimer
0000cce0 g     F .text	00000068 main
00009e84 g     F .text	0000003c x7B
00008e68 g     F .text	00000034 x37
0000b4dc g     F .text	0000003c xE5
0000b54c g     F .text	00000038 xE7
0001fcec g     O .bss	00000004 alt_envp
0001fcd4 g     O .bss	00000004 __malloc_max_total_mem
0001a924 g     F .text	00000060 altera_avalon_jtag_uart_write_fd
00008400 g     F .text	0000003c x11
000167dc g     F .text	00000018 __swbuf
00009ba0 g     F .text	0000003c x6F
00008bd4 g     F .text	00000038 x2C
00007014 g     F .text	000000e4 testFlag
0000a11c g     F .text	00000040 x86
00009138 g     F .text	0000003c x43
0000789c g     F .text	00000090 CALLccnn
0001e17c g     O .rwdata	00000004 screenBase
000148b4 g     F .text	00000008 __sclose
04000000 g       *ABS*	00000000 __alt_heap_limit
00016310 g     F .text	00000014 fclose
00001598 g     F .text	0000012c copySpriteLineToBuffer
000058c0 g     F .text	000000a4 XORrra
00002e24 g     F .text	0000004c unPause
0000f9e4 g     F .text	00001688 _dtoa_r
0000ae14 g     F .text	00000038 xC0
000123e0 g     F .text	0000080c _malloc_r
0001fd28 g     O .bss	00000400 opcodeArray
00016950 g     F .text	00000030 __ascii_wctomb
0001e1b4 g     O .rwdata	00000004 alt_errno
00006838 g     F .text	000000d4 SRLr
00011fc0 g     F .text	000000c4 _fwalk
000070f8 g     F .text	000000dc JRccn
0000b190 g     F .text	0000003c xD1
00004c8c g     F .text	00000080 ADCrrra
00009e48 g     F .text	0000003c x7A
0000cd48 g     F .text	00000084 .hidden __divsi3
00009050 g     F .text	00000034 x3F
000116c4 g     F .text	00000124 _malloc_trim_r
00002200 g     F .text	000001a0 updateTimer
0001c324 g       *ABS*	00000000 __CTOR_END__
000148bc g     F .text	000000dc strcmp
0000a340 g     F .text	0000003c x8F
00009358 g     F .text	0000003c x4C
000025e4 g     F .text	00000088 getGameName
0001c324 g       *ABS*	00000000 __flash_rodata_start
0001c324 g       *ABS*	00000000 __DTOR_LIST__
0000546c g     F .text	000000a4 ORn
00003d50 g     F .text	00000090 LDHrna
0000b5f4 g     F .text	00000038 xEA
0000a7e4 g     F .text	00000038 xA4
00009a34 g     F .text	0000003c x69
00008a48 g     F .text	00000038 x26
0000b204 g     F .text	00000038 xD4
00018818 g     F .text	00000088 .hidden __nedf2
00007678 g     F .text	000000d8 RET
000016c4 g     F .text	000001c4 drawTile
0001a83c g     F .text	00000038 alt_irq_init
0001a598 g     F .text	00000084 alt_release_fd
00004fc0 g     F .text	00000120 _SUBn
0000a0e0 g     F .text	0000003c x85
000090fc g     F .text	0000003c x42
0000b908 g     F .text	00000034 xFE
00009bdc g     F .text	00000040 x70
0001c598 g     O .rodata	00000100 .hidden __clz_tab
00009c5c g     F .text	00000040 x72
0001fcc8 g     O .bss	00000004 _PathLocale
000051bc g     F .text	000000a8 SBCrra
0000266c g     F .text	0000005c run
0001c17c g     F .text	00000014 atexit
00016090 g     F .text	00000060 _write_r
00002e70 g     F .text	00000038 i0
00012200 g     F .text	00000018 setlocale
00000a78 g     F .text	00000430 drawBackground
00009798 g     F .text	00000040 x5E
0000a15c g     F .text	0000003c x87
00009174 g     F .text	0000003c x44
000007bc g     F .text	000000f0 updateLY
0001e18c g     O .rwdata	00000004 _impure_ptr
0001fce4 g     O .bss	00000004 alt_argc
000060c0 g     F .text	00000140 RLrra
0001106c g     F .text	0000021c __sflush_r
00006a00 g     F .text	000000c0 BITir
0000aa18 g     F .text	0000003c xAE
0001b5b8 g     F .text	00000060 _do_dtors
000055b4 g     F .text	00000090 ANDr
000121ec g     F .text	00000008 __locale_cjk_lang
0000a5b0 g     F .text	00000038 x9A
0000433c g     F .text	00000130 DECrra
0000ad68 g     F .text	00000038 xBD
00000020 g       .exceptions	00000000 alt_irq_entry
00013c7c g     F .text	00000064 __ulp
000099bc g     F .text	0000003c x67
000089d8 g     F .text	00000038 x24
000116ac g     F .text	00000018 __fp_unlock_all
00008a80 g     F .text	00000034 x27
000044d8 g     F .text	00000080 ADDrn
0001e1a0 g     O .rwdata	00000008 alt_fs_list
00002f50 g     F .text	00000038 i4
00007fac g     F .text	0000003c x03
000026c8 g     F .text	00000058 updateInput
00009c1c g     F .text	00000040 x71
00008ed4 g     F .text	0000003c x39
0001e180 g     O .rwdata	00000002 DIV_addr
00001fb8 g     F .text	00000068 drawPixel
00005fa0 g     F .text	00000120 RLr
0000248c g     F .text	00000048 resetDiv
000083b0 g     F .text	00000050 x10
0000b350 g     F .text	00000038 xDA
00000020 g       *ABS*	00000000 __ram_exceptions_start
0000a6cc g     F .text	00000038 x9F
000096a8 g     F .text	0000003c x5A
00012218 g     F .text	0000000c localeconv
0000026c g     F .text	0000003c readData
00004b20 g     F .text	0000016c _ADCrn
0001b638 g     F .text	00000050 alt_ic_isr_register
00007a50 g     F .text	00000078 CPL
00009aac g     F .text	0000003c x6B
00008fe0 g     F .text	00000038 x3D
00000ff4 g     F .text	00000150 drawTileLine
00007e74 g     F .text	00000048 EI
0000a578 g     F .text	00000038 x99
0000953c g     F .text	0000003c x54
0001e1c8 g       *ABS*	00000000 _edata
0000a494 g     F .text	00000038 x95
0000944c g     F .text	0000003c x50
0000966c g     F .text	0000003c x59
00008768 g     F .text	00000038 x1D
00020228 g       *ABS*	00000000 _end
0000a210 g     F .text	0000003c x8A
00003de0 g     F .text	000000a4 INCrr
00016324 g     F .text	00000164 __fputwc
000093d0 g     F .text	00000040 x4E
00000230 g       *ABS*	00000000 __ram_exceptions_end
00007b68 g     F .text	0000006c SCF
0001adfc g     F .text	000000f0 altera_avalon_jtag_uart_ioctl
0000b518 g     F .text	00000034 xE6
00002d98 g     F .text	00000030 halt
00006200 g     F .text	00000100 RRr
0001b710 g     F .text	0000008c alt_ic_irq_disable
0001fcc4 g     O .bss	00000004 backup
00007854 g     F .text	00000048 CALLnn
0000b4a0 g     F .text	0000003c xE2
0000b77c g     F .text	0000003c xF5
0000ab6c g     F .text	00000038 xB4
000147dc g     F .text	0000007c __swrite
0000581c g     F .text	000000a4 XORn
0001e198 g     O .rwdata	00000004 __malloc_trim_threshold
000121e0 g     F .text	0000000c __locale_msgcharset
0000cf24 g     F .text	00000038 exit
000084f0 g     F .text	00000038 x15
00012084 g     F .text	000000c4 _fwalk_reent
00013a80 g     F .text	000001fc __mdiff
00002ea8 g     F .text	00000038 i1
0000afa0 g     F .text	00000038 xC7
0000cdcc g     F .text	00000074 .hidden __modsi3
00009fb4 g     F .text	0000003c x80
00008058 g     F .text	00000038 x06
0000a288 g     F .text	0000003c x8C
04000000 g       *ABS*	00000000 __alt_data_end
00000020 g     F .exceptions	00000000 alt_exception
00011688 g     F .text	00000004 __sfp_lock_release
00004728 g     F .text	0000006c ADDrrsp
0000b1cc g     F .text	00000038 xD2
00001940 g     F .text	00000678 drawWindow
00000000 g       *ABS*	00000000 __alt_mem_sdram
00003520 g     F .text	00000068 LDrr
000098c8 g     F .text	0000003c x63
000088c4 g     F .text	00000038 x20
00001888 g     F .text	000000b8 readTileData
00004aa0 g     F .text	00000080 ADCrn
000030f0 g     F .text	00000064 requestInterrupt
000050e0 g     F .text	00000078 SBCn
0000b3c0 g     F .text	00000034 xDE
00002444 g     F .text	00000048 update
0001e184 g     O .rwdata	00000002 TMA_addr
00009268 g     F .text	0000003c x48
000081c4 g     F .text	00000040 x0A
00007bd4 g     F .text	00000210 DAA
00004e6c g     F .text	00000064 SUBr
0000b860 g     F .text	0000003c xF9
00019f80 g     F .text	00000034 _exit
0000792c g     F .text	00000124 _CALLnn
0001b32c g     F .text	0000012c alt_alarm_start
00008fa8 g     F .text	00000038 x3C
0000327c g     F .text	00000070 getSignedValue
00009018 g     F .text	00000038 x3E
00009940 g     F .text	0000003c x65
00008938 g     F .text	00000064 x22
000059c8 g     F .text	00000078 CPn
00012224 g     F .text	000001bc __smakebuf_r
0000a3ec g     F .text	00000038 x92
00008638 g     F .text	00000034 x18
0000d09c g     F .text	00000098 strlen
0001bb60 g     F .text	0000015c open
00005ab8 g     F .text	000000e4 _CPn
000023a0 g     F .text	000000a4 updateDiv
000188a0 g     F .text	000000dc .hidden __gedf2
0000ac88 g     F .text	00000038 xB9
00009394 g     F .text	0000003c x4D
0001e19c g     O .rwdata	00000004 __wctomb
00004558 g     F .text	0000012c _ADDrn
00014a94 g     F .text	00000018 __sprint_r
0001b618 g     F .text	00000020 alt_icache_flush_all
0001e1bc g     O .rwdata	00000004 alt_priority_mask
000072b8 g     F .text	00000088 JPrr
0000b8d4 g     F .text	00000034 xFB
0001b688 g     F .text	00000088 alt_ic_irq_enable
0000f410 g     F .text	0000001c __vfprintf_internal
0000a73c g     F .text	00000038 xA1
00016980 g     F .text	0000005c _wctomb_r
0000b3f4 g     F .text	00000038 xDF
000192dc g     F .text	000008fc .hidden __subdf3
00008020 g     F .text	00000038 x05
00003cb8 g     F .text	00000098 LDHnar
0000a068 g     F .text	0000003c x83
00009084 g     F .text	0000003c x40
0000817c g     F .text	00000048 x09
00013420 g     F .text	000000b0 __lo0bits
0001e1c0 g     O .rwdata	00000008 alt_alarm_list
0001b558 g     F .text	00000060 _do_ctors
00009efc g     F .text	0000003c x7D
00006300 g     F .text	00000150 RRrra
000099f8 g     F .text	0000003c x68
00008a10 g     F .text	00000038 x25
0000a81c g     F .text	00000038 xA5
00016890 g     F .text	000000c0 wcrtomb
00005b9c g     F .text	000000f8 RRCr
00019e7c g     F .text	000000d8 close
00006668 g     F .text	000000d8 SLAr
000087d8 g     F .text	000000ec x1F
000027f0 g     F .text	0000004c fetchOpcode
00006b98 g     F .text	00000084 SETir
0001a1f8 g     F .text	00000084 alt_load
00002b7c g     F .text	000000fc wr8
000164ac g     F .text	00000080 fputwc
0001168c g     F .text	00000004 __sinit_lock_acquire
0001316c g     F .text	00000148 __multadd
00003200 g     F .text	0000007c readAddr
00013144 g     F .text	00000028 _Bfree
0000b31c g     F .text	00000034 xD9
000008ac g     F .text	00000094 setMode



Disassembly of section .entry:

00000000 <__reset>:
 * Jump to the _start entry point in the .text section if reset code
 * is allowed or if optimizing for RTL simulation.
 */
#if defined(ALT_ALLOW_CODE_AT_RESET) || defined(ALT_SIM_OPTIMIZE)
    /* Jump to the _start entry point in the .text section. */
    movhi r1, %hi(_start)
   0:	00400034 	movhi	at,0
    ori r1, r1, %lo(_start)
   4:	08408c14 	ori	at,at,560
    jmp r1
   8:	0800683a 	jmp	at
	...

Disassembly of section .exceptions:

00000020 <alt_exception>:

#else /* ALT_EXCEPTION_STACK disabled */
        /* 
         * Reserve space on normal stack for registers about to be pushed.
         */
        addi  sp, sp, -76
  20:	deffed04 	addi	sp,sp,-76
         * documentation for details).
         *
         * Leave a gap in the stack frame at 4(sp) for the muldiv handler to
         * store zero into.
         */
        stw   ra,  0(sp)
  24:	dfc00015 	stw	ra,0(sp)
        stw   r1,   8(sp)
  28:	d8400215 	stw	at,8(sp)
        stw   r2,  12(sp)
  2c:	d8800315 	stw	r2,12(sp)
        stw   r3,  16(sp)
  30:	d8c00415 	stw	r3,16(sp)
        stw   r4,  20(sp)
  34:	d9000515 	stw	r4,20(sp)
        stw   r5,  24(sp)
  38:	d9400615 	stw	r5,24(sp)
        stw   r6,  28(sp)
  3c:	d9800715 	stw	r6,28(sp)
        stw   r7,  32(sp)
  40:	d9c00815 	stw	r7,32(sp)
        rdctl r5, estatus   /* Read early to avoid usage stall */
  44:	000b307a 	rdctl	r5,estatus
        stw   r8,  36(sp)
  48:	da000915 	stw	r8,36(sp)
        stw   r9,  40(sp)
  4c:	da400a15 	stw	r9,40(sp)
        stw   r10, 44(sp)
  50:	da800b15 	stw	r10,44(sp)
        stw   r11, 48(sp)
  54:	dac00c15 	stw	r11,48(sp)
        stw   r12, 52(sp)
  58:	db000d15 	stw	r12,52(sp)
        stw   r13, 56(sp)
  5c:	db400e15 	stw	r13,56(sp)
        stw   r14, 60(sp)
  60:	db800f15 	stw	r14,60(sp)
        stw   r15, 64(sp)
  64:	dbc01015 	stw	r15,64(sp)
        /*
         * ea-4 contains the address of the instruction being executed
         * when the exception occured. For interrupt exceptions, we will
         * will be re-issue the isntruction. Store it in 72(sp)
         */
        stw   r5,  68(sp)  /* estatus */
  68:	d9401115 	stw	r5,68(sp)
        addi  r15, ea, -4  /* instruction that caused exception */
  6c:	ebffff04 	addi	r15,ea,-4
        stw   r15,  72(sp)
  70:	dbc01215 	stw	r15,72(sp)
#else
        /*
         * Test to see if the exception was a software exception or caused 
         * by an external interrupt, and vector accordingly.
         */
        rdctl r4, ipending
  74:	0009313a 	rdctl	r4,ipending
        andi  r2, r5, 1
  78:	2880004c 	andi	r2,r5,1
        beq   r2, zero, .Lnot_irq
  7c:	10000326 	beq	r2,zero,8c <alt_exception+0x6c>
        beq   r4, zero, .Lnot_irq
  80:	20000226 	beq	r4,zero,8c <alt_exception+0x6c>
        /*
         * Now that all necessary registers have been preserved, call 
         * alt_irq_handler() to process the interrupts.
         */

        call alt_irq_handler
  84:	00000fc0 	call	fc <alt_irq_handler>

        .section .exceptions.irqreturn, "xa"

        br    .Lexception_exit
  88:	00000706 	br	a8 <alt_exception+0x88>
         * upon completion, so we write ea (address of instruction *after*
         * the one where the exception occured) into 72(sp). The actual
         * instruction that caused the exception is written in r2, which these
         * handlers will utilize.
         */
        stw ea, 72(sp) /* EA is PC+4 so will skip over instruction causing exception */
  8c:	df401215 	stw	ea,72(sp)
.Lunknown_16bit:
        addi.n r4, r4, 2 /* Need PC+2 to skip over instruction causing exception */
        stw r4, 72(sp)

#else /* CDX is not Enabled and all instructions are 32bits */
        ldw r2, -4(ea) /* Instruction value that caused exception */
  90:	e8bfff17 	ldw	r2,-4(ea)
         * debugger is present) or go into an infinite loop since the
         * handling behavior is undefined; in that case we will not return here.
         */

        /* Load exception-causing address as first argument (r4) */
        addi   r4, ea, -4
  94:	e93fff04 	addi	r4,ea,-4

        /* Call the instruction-exception entry */
        call   alt_instruction_exception_entry
  98:	00001d00 	call	1d0 <alt_instruction_exception_entry>
         * instruction
         *
         * Return code was 0: Skip. The instruction after the exception is
         * already stored in 72(sp).
         */
        bne   r2, r0, .Lexception_exit
  9c:	1000021e 	bne	r2,zero,a8 <alt_exception+0x88>

        /*
         * Otherwise, modify 72(sp) to re-issue the instruction that caused the
         * exception.
         */
        addi  r15, ea, -4  /* instruction that caused exception */
  a0:	ebffff04 	addi	r15,ea,-4
        stw   r15,  72(sp)
  a4:	dbc01215 	stw	r15,72(sp)
        /* 
         * Restore the saved registers, so that all general purpose registers 
         * have been restored to their state at the time the interrupt occured.
         */

        ldw   r5,  68(sp)
  a8:	d9401117 	ldw	r5,68(sp)
        ldw   ea,  72(sp)  /* This becomes the PC once eret is executed */
  ac:	df401217 	ldw	ea,72(sp)
        ldw   ra,   0(sp)
  b0:	dfc00017 	ldw	ra,0(sp)

        wrctl estatus, r5
  b4:	2801707a 	wrctl	estatus,r5

        ldw   r1,   8(sp)
  b8:	d8400217 	ldw	at,8(sp)
        ldw   r2,  12(sp)
  bc:	d8800317 	ldw	r2,12(sp)
        ldw   r3,  16(sp)
  c0:	d8c00417 	ldw	r3,16(sp)
        ldw   r4,  20(sp)
  c4:	d9000517 	ldw	r4,20(sp)
        ldw   r5,  24(sp)
  c8:	d9400617 	ldw	r5,24(sp)
        ldw   r6,  28(sp)
  cc:	d9800717 	ldw	r6,28(sp)
        ldw   r7,  32(sp)
  d0:	d9c00817 	ldw	r7,32(sp)

#if defined(ALT_EXCEPTION_STACK) && defined(ALT_STACK_CHECK)
        ldw   et, %gprel(alt_exception_old_stack_limit)(gp)
#endif

        ldw   r8,  36(sp)
  d4:	da000917 	ldw	r8,36(sp)
        ldw   r9,  40(sp)
  d8:	da400a17 	ldw	r9,40(sp)
        ldw   r10, 44(sp)
  dc:	da800b17 	ldw	r10,44(sp)
        ldw   r11, 48(sp)
  e0:	dac00c17 	ldw	r11,48(sp)
        ldw   r12, 52(sp)
  e4:	db000d17 	ldw	r12,52(sp)
        ldw   r13, 56(sp)
  e8:	db400e17 	ldw	r13,56(sp)
        ldw   r14, 60(sp)
  ec:	db800f17 	ldw	r14,60(sp)
        ldw   r15, 64(sp)
  f0:	dbc01017 	ldw	r15,64(sp)
        stw   et, %gprel(alt_stack_limit_value)(gp)
        stw   zero, %gprel(alt_exception_old_stack_limit)(gp)
#endif /* ALT_STACK_CHECK */
        ldw   sp,  76(sp)
#else /* ALT_EXCEPTION_STACK disabled */
        addi  sp, sp, 76
  f4:	dec01304 	addi	sp,sp,76

        /*
         * Return to the interrupted instruction.
         */

        eret
  f8:	ef80083a 	eret

000000fc <alt_irq_handler>:
 * instruction is present if the macro ALT_CI_INTERRUPT_VECTOR defined.
 */

void alt_irq_handler (void) __attribute__ ((section (".exceptions")));
void alt_irq_handler (void)
{
  fc:	defff904 	addi	sp,sp,-28
 100:	dfc00615 	stw	ra,24(sp)
 104:	df000515 	stw	fp,20(sp)
 108:	df000504 	addi	fp,sp,20
  
  /*
   * Notify the operating system that we are at interrupt level.
   */ 
  
  ALT_OS_INT_ENTER();
 10c:	0001883a 	nop
#ifndef NIOS2_EIC_PRESENT
static ALT_INLINE alt_u32 ALT_ALWAYS_INLINE alt_irq_pending (void)
{
  alt_u32 active;

  NIOS2_READ_IPENDING (active);
 110:	0005313a 	rdctl	r2,ipending
 114:	e0bffe15 	stw	r2,-8(fp)

  return active;
 118:	e0bffe17 	ldw	r2,-8(fp)
   * Consider the case where the high priority interupt is asserted during
   * the interrupt entry sequence for a lower priority interrupt to see why
   * this is the case.
   */

  active = alt_irq_pending ();
 11c:	e0bffb15 	stw	r2,-20(fp)

  do
  {
    i = 0;
 120:	e03ffd15 	stw	zero,-12(fp)
    mask = 1;
 124:	00800044 	movi	r2,1
 128:	e0bffc15 	stw	r2,-16(fp)
     * called to clear the interrupt condition.
     */

    do
    {
      if (active & mask)
 12c:	e0fffb17 	ldw	r3,-20(fp)
 130:	e0bffc17 	ldw	r2,-16(fp)
 134:	1884703a 	and	r2,r3,r2
 138:	10001426 	beq	r2,zero,18c <alt_irq_handler+0x90>
      { 
#ifdef ALT_ENHANCED_INTERRUPT_API_PRESENT
        alt_irq[i].handler(alt_irq[i].context); 
 13c:	008000b4 	movhi	r2,2
 140:	10804a04 	addi	r2,r2,296
 144:	e0fffd17 	ldw	r3,-12(fp)
 148:	180690fa 	slli	r3,r3,3
 14c:	10c5883a 	add	r2,r2,r3
 150:	10c00017 	ldw	r3,0(r2)
 154:	008000b4 	movhi	r2,2
 158:	10804a04 	addi	r2,r2,296
 15c:	e13ffd17 	ldw	r4,-12(fp)
 160:	200890fa 	slli	r4,r4,3
 164:	1105883a 	add	r2,r2,r4
 168:	10800104 	addi	r2,r2,4
 16c:	10800017 	ldw	r2,0(r2)
 170:	1009883a 	mov	r4,r2
 174:	183ee83a 	callr	r3
#else
        alt_irq[i].handler(alt_irq[i].context, i); 
#endif
        break;
 178:	0001883a 	nop
#ifndef NIOS2_EIC_PRESENT
static ALT_INLINE alt_u32 ALT_ALWAYS_INLINE alt_irq_pending (void)
{
  alt_u32 active;

  NIOS2_READ_IPENDING (active);
 17c:	0005313a 	rdctl	r2,ipending
 180:	e0bfff15 	stw	r2,-4(fp)

  return active;
 184:	e0bfff17 	ldw	r2,-4(fp)
 188:	00000706 	br	1a8 <alt_irq_handler+0xac>
      }
      mask <<= 1;
 18c:	e0bffc17 	ldw	r2,-16(fp)
 190:	1085883a 	add	r2,r2,r2
 194:	e0bffc15 	stw	r2,-16(fp)
      i++;
 198:	e0bffd17 	ldw	r2,-12(fp)
 19c:	10800044 	addi	r2,r2,1
 1a0:	e0bffd15 	stw	r2,-12(fp)

    } while (1);
 1a4:	003fe106 	br	12c <__alt_data_end+0xfc00012c>

    active = alt_irq_pending ();
 1a8:	e0bffb15 	stw	r2,-20(fp)
    
  } while (active);
 1ac:	e0bffb17 	ldw	r2,-20(fp)
 1b0:	103fdb1e 	bne	r2,zero,120 <__alt_data_end+0xfc000120>

  /*
   * Notify the operating system that interrupt processing is complete.
   */ 

  ALT_OS_INT_EXIT();
 1b4:	0001883a 	nop
}
 1b8:	0001883a 	nop
 1bc:	e037883a 	mov	sp,fp
 1c0:	dfc00117 	ldw	ra,4(sp)
 1c4:	df000017 	ldw	fp,0(sp)
 1c8:	dec00204 	addi	sp,sp,8
 1cc:	f800283a 	ret

000001d0 <alt_instruction_exception_entry>:
 * that handler if it has been registered. Absent a handler, it will
 * break break or hang as discussed below.
 */
int 
alt_instruction_exception_entry (alt_u32 exception_pc)
{
 1d0:	defffb04 	addi	sp,sp,-20
 1d4:	dfc00415 	stw	ra,16(sp)
 1d8:	df000315 	stw	fp,12(sp)
 1dc:	df000304 	addi	fp,sp,12
 1e0:	e13fff15 	stw	r4,-4(fp)
  cause = ( (cause & NIOS2_EXCEPTION_REG_CAUSE_MASK) >>
              NIOS2_EXCEPTION_REG_CAUSE_OFST );

  NIOS2_READ_BADADDR(badaddr);
#else
  cause = NIOS2_EXCEPTION_CAUSE_NOT_PRESENT;
 1e4:	00bfffc4 	movi	r2,-1
 1e8:	e0bffd15 	stw	r2,-12(fp)
  badaddr = 0;
 1ec:	e03ffe15 	stw	zero,-8(fp)
#endif /* NIOS2_HAS_EXTRA_EXCEPTION_INFO */

  if(alt_instruction_exception_handler) {
 1f0:	d0a6e117 	ldw	r2,-25724(gp)
 1f4:	10000726 	beq	r2,zero,214 <alt_instruction_exception_entry+0x44>
     * Call handler. Its return value indicates whether the exception-causing
     * instruction should be re-issued. The code that called us,
     * alt_eceptions_entry.S, will look at this value and adjust the ea
     * register as necessary
     */
    return alt_instruction_exception_handler(cause, exception_pc, badaddr);
 1f8:	d0a6e117 	ldw	r2,-25724(gp)
 1fc:	e0fffd17 	ldw	r3,-12(fp)
 200:	e1bffe17 	ldw	r6,-8(fp)
 204:	e17fff17 	ldw	r5,-4(fp)
 208:	1809883a 	mov	r4,r3
 20c:	103ee83a 	callr	r2
 210:	00000206 	br	21c <alt_instruction_exception_entry+0x4c>
   *    (a peripheral which negates its interrupt output before its
   *    interrupt handler has been executed will cause spurious interrupts)
   */
  else {
#ifdef NIOS2_HAS_DEBUG_STUB
    NIOS2_BREAK();
 214:	003da03a 	break	0
      ;
#endif /* NIOS2_HAS_DEBUG_STUB */
  }

  /* We should not get here. Remove compiler warning. */
  return NIOS2_EXCEPTION_RETURN_REISSUE_INST;
 218:	0005883a 	mov	r2,zero
}
 21c:	e037883a 	mov	sp,fp
 220:	dfc00117 	ldw	ra,4(sp)
 224:	df000017 	ldw	fp,0(sp)
 228:	dec00204 	addi	sp,sp,8
 22c:	f800283a 	ret

Disassembly of section .text:

00000230 <_start>:

    /*
     * Now that the caches are initialized, set up the stack pointer and global pointer.
     * The values provided by the linker are assumed to be correctly aligned.
     */
    movhi sp, %hi(__alt_stack_pointer)
     230:	06c10034 	movhi	sp,1024
    ori sp, sp, %lo(__alt_stack_pointer)
     234:	dec00014 	ori	sp,sp,0
    movhi gp, %hi(_gp)
     238:	068000b4 	movhi	gp,2
    ori gp, gp, %lo(_gp)
     23c:	d6985e14 	ori	gp,gp,24952
 */
#ifndef ALT_SIM_OPTIMIZE
    /* Log that the BSS is about to be cleared. */
    ALT_LOG_PUTS(alt_log_msg_bss)

    movhi r2, %hi(__bss_start)
     240:	00800074 	movhi	r2,1
    ori r2, r2, %lo(__bss_start)
     244:	10bf3114 	ori	r2,r2,64708

    movhi r3, %hi(__bss_end)
     248:	00c000b4 	movhi	r3,2
    ori r3, r3, %lo(__bss_end)
     24c:	18c08a14 	ori	r3,r3,552

    beq r2, r3, 1f
     250:	10c00326 	beq	r2,r3,260 <_start+0x30>

0:
    stw zero, (r2)
     254:	10000015 	stw	zero,0(r2)
    addi r2, r2, 4
     258:	10800104 	addi	r2,r2,4
    bltu r2, r3, 0b
     25c:	10fffd36 	bltu	r2,r3,254 <__alt_data_end+0xfc000254>
     * section aren't defined until alt_load() has been called).
     */
    mov   et, zero
#endif

    call alt_load
     260:	001a1f80 	call	1a1f8 <alt_load>

    /* Log that alt_main is about to be called. */
    ALT_LOG_PUTS(alt_log_msg_alt_main)

    /* Call the C entry point. It should never return. */
    call alt_main
     264:	001a3940 	call	1a394 <alt_main>

00000268 <alt_after_alt_main>:

    /* Wait in infinite loop in case alt_main does return. */
alt_after_alt_main:
    br alt_after_alt_main
     268:	003fff06 	br	268 <__alt_data_end+0xfc000268>

0000026c <readData>:
void requestInterrupt(interupt_name index);
// Memory Start
byte* base = (0x1900000 * 2);
//byte* ppu_base = 0x04000000;

byte readData(word address) {
     26c:	defffd04 	addi	sp,sp,-12
     270:	df000215 	stw	fp,8(sp)
     274:	df000204 	addi	fp,sp,8
     278:	2005883a 	mov	r2,r4
     27c:	e0bfff0d 	sth	r2,-4(fp)
	byte* val = base + address;
     280:	d0e00017 	ldw	r3,-32768(gp)
     284:	e0bfff0b 	ldhu	r2,-4(fp)
     288:	1885883a 	add	r2,r3,r2
     28c:	e0bffe15 	stw	r2,-8(fp)
	return *val;
     290:	e0bffe17 	ldw	r2,-8(fp)
     294:	10800003 	ldbu	r2,0(r2)
}
     298:	e037883a 	mov	sp,fp
     29c:	df000017 	ldw	fp,0(sp)
     2a0:	dec00104 	addi	sp,sp,4
     2a4:	f800283a 	ret

000002a8 <dmaTransfer>:

void resetDiv(Timer* timer);

void writeData(word address, byte data);
void dmaTransfer(GPU* gpu, byte startPrefix){
     2a8:	defff904 	addi	sp,sp,-28
     2ac:	dfc00615 	stw	ra,24(sp)
     2b0:	df000515 	stw	fp,20(sp)
     2b4:	dc000415 	stw	r16,16(sp)
     2b8:	df000504 	addi	fp,sp,20
     2bc:	e13ffd15 	stw	r4,-12(fp)
     2c0:	2805883a 	mov	r2,r5
     2c4:	e0bffe05 	stb	r2,-8(fp)
	printf("DMA Trans\n");
     2c8:	010000b4 	movhi	r4,2
     2cc:	2130c904 	addi	r4,r4,-15580
     2d0:	000d0880 	call	d088 <puts>
	word startAddress = startPrefix;
     2d4:	e0bffe03 	ldbu	r2,-8(fp)
     2d8:	e0bffc0d 	sth	r2,-16(fp)
	startAddress = startAddress << 8;
     2dc:	e0bffc0b 	ldhu	r2,-16(fp)
     2e0:	1004923a 	slli	r2,r2,8
     2e4:	e0bffc0d 	sth	r2,-16(fp)
	for(int i = 0; i < 0xA0; i++) {
     2e8:	e03ffb15 	stw	zero,-20(fp)
     2ec:	00001306 	br	33c <dmaTransfer+0x94>
		writeData(gpu->OAM_START + i, readData(startAddress + i));
     2f0:	e0bffd17 	ldw	r2,-12(fp)
     2f4:	1080058b 	ldhu	r2,22(r2)
     2f8:	e0fffb17 	ldw	r3,-20(fp)
     2fc:	10c5883a 	add	r2,r2,r3
     300:	143fffcc 	andi	r16,r2,65535
     304:	e0bffb17 	ldw	r2,-20(fp)
     308:	1007883a 	mov	r3,r2
     30c:	e0bffc0b 	ldhu	r2,-16(fp)
     310:	1885883a 	add	r2,r3,r2
     314:	10bfffcc 	andi	r2,r2,65535
     318:	1009883a 	mov	r4,r2
     31c:	000026c0 	call	26c <readData>
     320:	10803fcc 	andi	r2,r2,255
     324:	100b883a 	mov	r5,r2
     328:	8009883a 	mov	r4,r16
     32c:	00003640 	call	364 <writeData>
void writeData(word address, byte data);
void dmaTransfer(GPU* gpu, byte startPrefix){
	printf("DMA Trans\n");
	word startAddress = startPrefix;
	startAddress = startAddress << 8;
	for(int i = 0; i < 0xA0; i++) {
     330:	e0bffb17 	ldw	r2,-20(fp)
     334:	10800044 	addi	r2,r2,1
     338:	e0bffb15 	stw	r2,-20(fp)
     33c:	e0bffb17 	ldw	r2,-20(fp)
     340:	10802810 	cmplti	r2,r2,160
     344:	103fea1e 	bne	r2,zero,2f0 <__alt_data_end+0xfc0002f0>
		writeData(gpu->OAM_START + i, readData(startAddress + i));
	}
}
     348:	0001883a 	nop
     34c:	e6ffff04 	addi	sp,fp,-4
     350:	dfc00217 	ldw	ra,8(sp)
     354:	df000117 	ldw	fp,4(sp)
     358:	dc000017 	ldw	r16,0(sp)
     35c:	dec00304 	addi	sp,sp,12
     360:	f800283a 	ret

00000364 <writeData>:

void writeData(word address, byte data) {
     364:	defffc04 	addi	sp,sp,-16
     368:	df000315 	stw	fp,12(sp)
     36c:	df000304 	addi	fp,sp,12
     370:	2007883a 	mov	r3,r4
     374:	2805883a 	mov	r2,r5
     378:	e0fffe0d 	sth	r3,-8(fp)
     37c:	e0bfff05 	stb	r2,-4(fp)
//
//	}else if(address == 0xFF00) {
//		byte* val = base + address;
//		*val = (readData(address) & 0x0F) | (data & 0x30);
//	}else {
		byte* val = base + address;
     380:	d0e00017 	ldw	r3,-32768(gp)
     384:	e0bffe0b 	ldhu	r2,-8(fp)
     388:	1885883a 	add	r2,r3,r2
     38c:	e0bffd15 	stw	r2,-12(fp)
		*val = data;
     390:	e0bffd17 	ldw	r2,-12(fp)
     394:	e0ffff03 	ldbu	r3,-4(fp)
     398:	10c00005 	stb	r3,0(r2)
//				dmaTransfer(backup->gpu, data);
//			}
//		}
//	}

}
     39c:	0001883a 	nop
     3a0:	e037883a 	mov	sp,fp
     3a4:	df000017 	ldw	fp,0(sp)
     3a8:	dec00104 	addi	sp,sp,4
     3ac:	f800283a 	ret

000003b0 <resetMemory>:

void resetMemory() {
     3b0:	defffd04 	addi	sp,sp,-12
     3b4:	dfc00215 	stw	ra,8(sp)
     3b8:	df000115 	stw	fp,4(sp)
     3bc:	df000104 	addi	fp,sp,4
	word addr = 0x8000;
     3c0:	00a00004 	movi	r2,-32768
     3c4:	e0bfff0d 	sth	r2,-4(fp)
	while(addr != 0xA000) {
     3c8:	00000706 	br	3e8 <resetMemory+0x38>
		writeData(addr, 0);
     3cc:	e0bfff0b 	ldhu	r2,-4(fp)
     3d0:	000b883a 	mov	r5,zero
     3d4:	1009883a 	mov	r4,r2
     3d8:	00003640 	call	364 <writeData>
		addr += 1;
     3dc:	e0bfff0b 	ldhu	r2,-4(fp)
     3e0:	10800044 	addi	r2,r2,1
     3e4:	e0bfff0d 	sth	r2,-4(fp)

}

void resetMemory() {
	word addr = 0x8000;
	while(addr != 0xA000) {
     3e8:	e0ffff0b 	ldhu	r3,-4(fp)
     3ec:	00a80014 	movui	r2,40960
     3f0:	18bff61e 	bne	r3,r2,3cc <__alt_data_end+0xfc0003cc>
		writeData(addr, 0);
		addr += 1;
	}
	addr = 0xFF00;
     3f4:	00bfc004 	movi	r2,-256
     3f8:	e0bfff0d 	sth	r2,-4(fp)
	while(addr != 0xFF80) {
     3fc:	00000706 	br	41c <resetMemory+0x6c>
		writeData(addr, 0);
     400:	e0bfff0b 	ldhu	r2,-4(fp)
     404:	000b883a 	mov	r5,zero
     408:	1009883a 	mov	r4,r2
     40c:	00003640 	call	364 <writeData>
		addr += 1;
     410:	e0bfff0b 	ldhu	r2,-4(fp)
     414:	10800044 	addi	r2,r2,1
     418:	e0bfff0d 	sth	r2,-4(fp)
	while(addr != 0xA000) {
		writeData(addr, 0);
		addr += 1;
	}
	addr = 0xFF00;
	while(addr != 0xFF80) {
     41c:	e0ffff0b 	ldhu	r3,-4(fp)
     420:	00bfe014 	movui	r2,65408
     424:	18bff61e 	bne	r3,r2,400 <__alt_data_end+0xfc000400>
		writeData(addr, 0);
		addr += 1;
	}
	writeData(0xFFFF, 0);
     428:	000b883a 	mov	r5,zero
     42c:	013fffd4 	movui	r4,65535
     430:	00003640 	call	364 <writeData>
}
     434:	0001883a 	nop
     438:	e037883a 	mov	sp,fp
     43c:	dfc00117 	ldw	ra,4(sp)
     440:	df000017 	ldw	fp,0(sp)
     444:	dec00204 	addi	sp,sp,8
     448:	f800283a 	ret

0000044c <initGPU>:

//Start PPU
int* screenBase = 0x04000000;


void initGPU(GPU* gpu) {
     44c:	defffd04 	addi	sp,sp,-12
     450:	df000215 	stw	fp,8(sp)
     454:	df000204 	addi	fp,sp,8
     458:	e13fff15 	stw	r4,-4(fp)
    gpu->LCDC= 0xFF40;
     45c:	e0bfff17 	ldw	r2,-4(fp)
     460:	00ffd004 	movi	r3,-192
     464:	10c0000d 	sth	r3,0(r2)
    gpu->STAT= 0xFF41;
     468:	e0bfff17 	ldw	r2,-4(fp)
     46c:	00ffd044 	movi	r3,-191
     470:	10c0008d 	sth	r3,2(r2)
    gpu->SCY = 0xFF42;
     474:	e0bfff17 	ldw	r2,-4(fp)
     478:	00ffd084 	movi	r3,-190
     47c:	10c0010d 	sth	r3,4(r2)
    gpu->SCX = 0xFF43;
     480:	e0bfff17 	ldw	r2,-4(fp)
     484:	00ffd0c4 	movi	r3,-189
     488:	10c0018d 	sth	r3,6(r2)
    gpu->LY  = 0xFF44;
     48c:	e0bfff17 	ldw	r2,-4(fp)
     490:	00ffd104 	movi	r3,-188
     494:	10c0020d 	sth	r3,8(r2)
    gpu->LYC = 0xFF45;
     498:	e0bfff17 	ldw	r2,-4(fp)
     49c:	00ffd144 	movi	r3,-187
     4a0:	10c0028d 	sth	r3,10(r2)
    gpu->BGP = 0xFF47;
     4a4:	e0bfff17 	ldw	r2,-4(fp)
     4a8:	00ffd1c4 	movi	r3,-185
     4ac:	10c0030d 	sth	r3,12(r2)
    gpu->OBP0= 0xFF48;
     4b0:	e0bfff17 	ldw	r2,-4(fp)
     4b4:	00ffd204 	movi	r3,-184
     4b8:	10c0038d 	sth	r3,14(r2)
    gpu->OBP1= 0xFF49;
     4bc:	e0bfff17 	ldw	r2,-4(fp)
     4c0:	00ffd244 	movi	r3,-183
     4c4:	10c0040d 	sth	r3,16(r2)
    gpu->WY  = 0xFF4A;
     4c8:	e0bfff17 	ldw	r2,-4(fp)
     4cc:	00ffd284 	movi	r3,-182
     4d0:	10c0048d 	sth	r3,18(r2)
    gpu->WX  = 0xFF4B;
     4d4:	e0bfff17 	ldw	r2,-4(fp)
     4d8:	00ffd2c4 	movi	r3,-181
     4dc:	10c0050d 	sth	r3,20(r2)

    gpu->OAM_START = 0xFE00;
     4e0:	e0bfff17 	ldw	r2,-4(fp)
     4e4:	00ff8004 	movi	r3,-512
     4e8:	10c0058d 	sth	r3,22(r2)
    gpu->OAM_END   = 0xFE9F;
     4ec:	e0bfff17 	ldw	r2,-4(fp)
     4f0:	00ffa7c4 	movi	r3,-353
     4f4:	10c0060d 	sth	r3,24(r2)

    gpu->HEIGHT = 32;
     4f8:	e0bfff17 	ldw	r2,-4(fp)
     4fc:	00c00804 	movi	r3,32
     500:	10c00715 	stw	r3,28(r2)
    gpu->WIDTH = 32;
     504:	e0bfff17 	ldw	r2,-4(fp)
     508:	00c00804 	movi	r3,32
     50c:	10c00815 	stw	r3,32(r2)
    gpu->START_0 = 0x9800;
     510:	e0bfff17 	ldw	r2,-4(fp)
     514:	00e60004 	movi	r3,-26624
     518:	10c0090d 	sth	r3,36(r2)
    gpu->START_1 = 0x9C00;
     51c:	e0bfff17 	ldw	r2,-4(fp)
     520:	00e70004 	movi	r3,-25600
     524:	10c0098d 	sth	r3,38(r2)
    gpu->LENGTH = 0x0400;
     528:	e0bfff17 	ldw	r2,-4(fp)
     52c:	00c10004 	movi	r3,1024
     530:	10c00a0d 	sth	r3,40(r2)

    gpu->VBLANK_TIME = 70224;
     534:	e0ffff17 	ldw	r3,-4(fp)
     538:	00800074 	movhi	r2,1
     53c:	10849404 	addi	r2,r2,4688
     540:	18800b15 	stw	r2,44(r3)
    gpu->clock = 0;
     544:	e0bfff17 	ldw	r2,-4(fp)
     548:	10000c15 	stw	zero,48(r2)
    gpu->mode = 2;
     54c:	e0bfff17 	ldw	r2,-4(fp)
     550:	00c00084 	movi	r3,2
     554:	10c00d15 	stw	r3,52(r2)
    gpu->line = 0;
     558:	e0bfff17 	ldw	r2,-4(fp)
     55c:	10000e15 	stw	zero,56(r2)

    //gpu.buffer = new Array(Screen.physics.WIDTH * Screen.physics.HEIGHT);
    //gpu.tileBuffer = new Array(8);
    //gpu.bgTileCache = {};
    for(int i = 0; i < 64; i++){
     560:	e03ffe15 	stw	zero,-8(fp)
     564:	00000b06 	br	594 <initGPU+0x148>
    	gpu->usedCache[i] = -1;
     568:	e0ffff17 	ldw	r3,-4(fp)
     56c:	e0bffe17 	ldw	r2,-8(fp)
     570:	1085e444 	addi	r2,r2,6033
     574:	1085883a 	add	r2,r2,r2
     578:	1085883a 	add	r2,r2,r2
     57c:	1885883a 	add	r2,r3,r2
     580:	00ffffc4 	movi	r3,-1
     584:	10c00015 	stw	r3,0(r2)
    gpu->line = 0;

    //gpu.buffer = new Array(Screen.physics.WIDTH * Screen.physics.HEIGHT);
    //gpu.tileBuffer = new Array(8);
    //gpu.bgTileCache = {};
    for(int i = 0; i < 64; i++){
     588:	e0bffe17 	ldw	r2,-8(fp)
     58c:	10800044 	addi	r2,r2,1
     590:	e0bffe15 	stw	r2,-8(fp)
     594:	e0bffe17 	ldw	r2,-8(fp)
     598:	10801010 	cmplti	r2,r2,64
     59c:	103ff21e 	bne	r2,zero,568 <__alt_data_end+0xfc000568>
    	gpu->usedCache[i] = -1;
    }
}
     5a0:	0001883a 	nop
     5a4:	e037883a 	mov	sp,fp
     5a8:	df000017 	ldw	fp,0(sp)
     5ac:	dec00104 	addi	sp,sp,4
     5b0:	f800283a 	ret

000005b4 <gpuUpdate>:
void updateLY(GPU* gpu);
void setMode(GPU* gpu, int mode);
void drawFrame(GPU* gpu);
void drawScanLine(GPU* gpu, int line);
bool gpuUpdate(GPU* gpu, int clockElapsed) {
     5b4:	defffb04 	addi	sp,sp,-20
     5b8:	dfc00415 	stw	ra,16(sp)
     5bc:	df000315 	stw	fp,12(sp)
     5c0:	df000304 	addi	fp,sp,12
     5c4:	e13ffe15 	stw	r4,-8(fp)
     5c8:	e17fff15 	stw	r5,-4(fp)
    gpu->clock += clockElapsed;
     5cc:	e0bffe17 	ldw	r2,-8(fp)
     5d0:	10c00c17 	ldw	r3,48(r2)
     5d4:	e0bfff17 	ldw	r2,-4(fp)
     5d8:	1887883a 	add	r3,r3,r2
     5dc:	e0bffe17 	ldw	r2,-8(fp)
     5e0:	10c00c15 	stw	r3,48(r2)
    bool vblank = false;
     5e4:	e03ffd15 	stw	zero,-12(fp)

    switch (gpu->mode) {
     5e8:	e0bffe17 	ldw	r2,-8(fp)
     5ec:	10800d17 	ldw	r2,52(r2)
     5f0:	10c00060 	cmpeqi	r3,r2,1
     5f4:	18002b1e 	bne	r3,zero,6a4 <gpuUpdate+0xf0>
     5f8:	10c00088 	cmpgei	r3,r2,2
     5fc:	1800021e 	bne	r3,zero,608 <gpuUpdate+0x54>
     600:	10000626 	beq	r2,zero,61c <gpuUpdate+0x68>
     604:	00006706 	br	7a4 <gpuUpdate+0x1f0>
     608:	10c000a0 	cmpeqi	r3,r2,2
     60c:	18003f1e 	bne	r3,zero,70c <gpuUpdate+0x158>
     610:	108000e0 	cmpeqi	r2,r2,3
     614:	10004a1e 	bne	r2,zero,740 <gpuUpdate+0x18c>
     618:	00006206 	br	7a4 <gpuUpdate+0x1f0>
        case 0: // HBLANK
            if (gpu->clock >= 204) {
     61c:	e0bffe17 	ldw	r2,-8(fp)
     620:	10800c17 	ldw	r2,48(r2)
     624:	10803310 	cmplti	r2,r2,204
     628:	1000571e 	bne	r2,zero,788 <gpuUpdate+0x1d4>
                gpu->clock -= 204;
     62c:	e0bffe17 	ldw	r2,-8(fp)
     630:	10800c17 	ldw	r2,48(r2)
     634:	10ffcd04 	addi	r3,r2,-204
     638:	e0bffe17 	ldw	r2,-8(fp)
     63c:	10c00c15 	stw	r3,48(r2)
                gpu->line++;
     640:	e0bffe17 	ldw	r2,-8(fp)
     644:	10800e17 	ldw	r2,56(r2)
     648:	10c00044 	addi	r3,r2,1
     64c:	e0bffe17 	ldw	r2,-8(fp)
     650:	10c00e15 	stw	r3,56(r2)
                updateLY(gpu);
     654:	e13ffe17 	ldw	r4,-8(fp)
     658:	00007bc0 	call	7bc <updateLY>
                if (gpu->line == 144) {
     65c:	e0bffe17 	ldw	r2,-8(fp)
     660:	10800e17 	ldw	r2,56(r2)
     664:	10802418 	cmpnei	r2,r2,144
     668:	10000a1e 	bne	r2,zero,694 <gpuUpdate+0xe0>
                    setMode(gpu, 1);
     66c:	01400044 	movi	r5,1
     670:	e13ffe17 	ldw	r4,-8(fp)
     674:	00008ac0 	call	8ac <setMode>
                    vblank = true;
     678:	00800044 	movi	r2,1
     67c:	e0bffd15 	stw	r2,-12(fp)
                    requestInterrupt(VBLANK);
     680:	0009883a 	mov	r4,zero
     684:	00030f00 	call	30f0 <requestInterrupt>
                    drawFrame(gpu);
     688:	e13ffe17 	ldw	r4,-8(fp)
     68c:	00009bc0 	call	9bc <drawFrame>
                } else {
                    setMode(gpu, 2);
                }
            }
            break;
     690:	00003d06 	br	788 <gpuUpdate+0x1d4>
                    setMode(gpu, 1);
                    vblank = true;
                    requestInterrupt(VBLANK);
                    drawFrame(gpu);
                } else {
                    setMode(gpu, 2);
     694:	01400084 	movi	r5,2
     698:	e13ffe17 	ldw	r4,-8(fp)
     69c:	00008ac0 	call	8ac <setMode>
                }
            }
            break;
     6a0:	00003906 	br	788 <gpuUpdate+0x1d4>
        case 1: // VBLANK
            if (gpu->clock >= 456) {
     6a4:	e0bffe17 	ldw	r2,-8(fp)
     6a8:	10800c17 	ldw	r2,48(r2)
     6ac:	10807210 	cmplti	r2,r2,456
     6b0:	1000371e 	bne	r2,zero,790 <gpuUpdate+0x1dc>
                gpu->clock -= 456;
     6b4:	e0bffe17 	ldw	r2,-8(fp)
     6b8:	10800c17 	ldw	r2,48(r2)
     6bc:	10ff8e04 	addi	r3,r2,-456
     6c0:	e0bffe17 	ldw	r2,-8(fp)
     6c4:	10c00c15 	stw	r3,48(r2)
                gpu->line++;
     6c8:	e0bffe17 	ldw	r2,-8(fp)
     6cc:	10800e17 	ldw	r2,56(r2)
     6d0:	10c00044 	addi	r3,r2,1
     6d4:	e0bffe17 	ldw	r2,-8(fp)
     6d8:	10c00e15 	stw	r3,56(r2)
                if (gpu->line > 153) {
     6dc:	e0bffe17 	ldw	r2,-8(fp)
     6e0:	10800e17 	ldw	r2,56(r2)
     6e4:	10802690 	cmplti	r2,r2,154
     6e8:	1000051e 	bne	r2,zero,700 <gpuUpdate+0x14c>
                    gpu->line = 0;
     6ec:	e0bffe17 	ldw	r2,-8(fp)
     6f0:	10000e15 	stw	zero,56(r2)
                    setMode(gpu, 2);
     6f4:	01400084 	movi	r5,2
     6f8:	e13ffe17 	ldw	r4,-8(fp)
     6fc:	00008ac0 	call	8ac <setMode>
                }
                updateLY(gpu);
     700:	e13ffe17 	ldw	r4,-8(fp)
     704:	00007bc0 	call	7bc <updateLY>
            }

            break;
     708:	00002106 	br	790 <gpuUpdate+0x1dc>
        case 2: // SCANLINE OAM
            if (gpu->clock >= 80) {
     70c:	e0bffe17 	ldw	r2,-8(fp)
     710:	10800c17 	ldw	r2,48(r2)
     714:	10801410 	cmplti	r2,r2,80
     718:	10001f1e 	bne	r2,zero,798 <gpuUpdate+0x1e4>
                gpu->clock -= 80;
     71c:	e0bffe17 	ldw	r2,-8(fp)
     720:	10800c17 	ldw	r2,48(r2)
     724:	10ffec04 	addi	r3,r2,-80
     728:	e0bffe17 	ldw	r2,-8(fp)
     72c:	10c00c15 	stw	r3,48(r2)
                setMode(gpu, 3);
     730:	014000c4 	movi	r5,3
     734:	e13ffe17 	ldw	r4,-8(fp)
     738:	00008ac0 	call	8ac <setMode>
            }
            break;
     73c:	00001606 	br	798 <gpuUpdate+0x1e4>
        case 3: // SCANLINE VRAM
            if (gpu->clock >= 172) {
     740:	e0bffe17 	ldw	r2,-8(fp)
     744:	10800c17 	ldw	r2,48(r2)
     748:	10802b10 	cmplti	r2,r2,172
     74c:	1000141e 	bne	r2,zero,7a0 <gpuUpdate+0x1ec>
                gpu->clock -= 172;
     750:	e0bffe17 	ldw	r2,-8(fp)
     754:	10800c17 	ldw	r2,48(r2)
     758:	10ffd504 	addi	r3,r2,-172
     75c:	e0bffe17 	ldw	r2,-8(fp)
     760:	10c00c15 	stw	r3,48(r2)
                drawScanLine(gpu, gpu->line);
     764:	e0bffe17 	ldw	r2,-8(fp)
     768:	10800e17 	ldw	r2,56(r2)
     76c:	100b883a 	mov	r5,r2
     770:	e13ffe17 	ldw	r4,-8(fp)
     774:	00009400 	call	940 <drawScanLine>
                setMode(gpu, 0);
     778:	000b883a 	mov	r5,zero
     77c:	e13ffe17 	ldw	r4,-8(fp)
     780:	00008ac0 	call	8ac <setMode>
            }
            break;
     784:	00000606 	br	7a0 <gpuUpdate+0x1ec>
                    drawFrame(gpu);
                } else {
                    setMode(gpu, 2);
                }
            }
            break;
     788:	0001883a 	nop
     78c:	00000506 	br	7a4 <gpuUpdate+0x1f0>
                    setMode(gpu, 2);
                }
                updateLY(gpu);
            }

            break;
     790:	0001883a 	nop
     794:	00000306 	br	7a4 <gpuUpdate+0x1f0>
        case 2: // SCANLINE OAM
            if (gpu->clock >= 80) {
                gpu->clock -= 80;
                setMode(gpu, 3);
            }
            break;
     798:	0001883a 	nop
     79c:	00000106 	br	7a4 <gpuUpdate+0x1f0>
            if (gpu->clock >= 172) {
                gpu->clock -= 172;
                drawScanLine(gpu, gpu->line);
                setMode(gpu, 0);
            }
            break;
     7a0:	0001883a 	nop
    }

    return vblank;
     7a4:	e0bffd17 	ldw	r2,-12(fp)
}
     7a8:	e037883a 	mov	sp,fp
     7ac:	dfc00117 	ldw	ra,4(sp)
     7b0:	df000017 	ldw	fp,0(sp)
     7b4:	dec00204 	addi	sp,sp,8
     7b8:	f800283a 	ret

000007bc <updateLY>:

void updateLY(GPU* gpu) {
     7bc:	defffb04 	addi	sp,sp,-20
     7c0:	dfc00415 	stw	ra,16(sp)
     7c4:	df000315 	stw	fp,12(sp)
     7c8:	dc000215 	stw	r16,8(sp)
     7cc:	df000304 	addi	fp,sp,12
     7d0:	e13ffe15 	stw	r4,-8(fp)
    writeData(gpu->LY, gpu->line);
     7d4:	e0bffe17 	ldw	r2,-8(fp)
     7d8:	1080020b 	ldhu	r2,8(r2)
     7dc:	10ffffcc 	andi	r3,r2,65535
     7e0:	e0bffe17 	ldw	r2,-8(fp)
     7e4:	10800e17 	ldw	r2,56(r2)
     7e8:	10803fcc 	andi	r2,r2,255
     7ec:	100b883a 	mov	r5,r2
     7f0:	1809883a 	mov	r4,r3
     7f4:	00003640 	call	364 <writeData>
    byte STAT = readData(gpu->STAT);
     7f8:	e0bffe17 	ldw	r2,-8(fp)
     7fc:	1080008b 	ldhu	r2,2(r2)
     800:	10bfffcc 	andi	r2,r2,65535
     804:	1009883a 	mov	r4,r2
     808:	000026c0 	call	26c <readData>
     80c:	e0bffd05 	stb	r2,-12(fp)
    if (readData(gpu->LY) == readData(gpu->LYC)) {
     810:	e0bffe17 	ldw	r2,-8(fp)
     814:	1080020b 	ldhu	r2,8(r2)
     818:	10bfffcc 	andi	r2,r2,65535
     81c:	1009883a 	mov	r4,r2
     820:	000026c0 	call	26c <readData>
     824:	1021883a 	mov	r16,r2
     828:	e0bffe17 	ldw	r2,-8(fp)
     82c:	1080028b 	ldhu	r2,10(r2)
     830:	10bfffcc 	andi	r2,r2,65535
     834:	1009883a 	mov	r4,r2
     838:	000026c0 	call	26c <readData>
     83c:	80c03fcc 	andi	r3,r16,255
     840:	10803fcc 	andi	r2,r2,255
     844:	18800a1e 	bne	r3,r2,870 <updateLY+0xb4>
        writeData(gpu->STAT, STAT | (1 << 2));
     848:	e0bffe17 	ldw	r2,-8(fp)
     84c:	1080008b 	ldhu	r2,2(r2)
     850:	10ffffcc 	andi	r3,r2,65535
     854:	e0bffd03 	ldbu	r2,-12(fp)
     858:	10800114 	ori	r2,r2,4
     85c:	10803fcc 	andi	r2,r2,255
     860:	100b883a 	mov	r5,r2
     864:	1809883a 	mov	r4,r3
     868:	00003640 	call	364 <writeData>
//            requestInterrupt(LCDC);
        }
    } else {
        writeData(gpu->STAT, STAT & (0xFF - (1 << 2)));
    }
}
     86c:	00000806 	br	890 <updateLY+0xd4>
        writeData(gpu->STAT, STAT | (1 << 2));
        if (STAT & (1 << 6)) {
//            requestInterrupt(LCDC);
        }
    } else {
        writeData(gpu->STAT, STAT & (0xFF - (1 << 2)));
     870:	e0bffe17 	ldw	r2,-8(fp)
     874:	1080008b 	ldhu	r2,2(r2)
     878:	10ffffcc 	andi	r3,r2,65535
     87c:	e0bffd03 	ldbu	r2,-12(fp)
     880:	10803ecc 	andi	r2,r2,251
     884:	100b883a 	mov	r5,r2
     888:	1809883a 	mov	r4,r3
     88c:	00003640 	call	364 <writeData>
    }
}
     890:	0001883a 	nop
     894:	e6ffff04 	addi	sp,fp,-4
     898:	dfc00217 	ldw	ra,8(sp)
     89c:	df000117 	ldw	fp,4(sp)
     8a0:	dc000017 	ldw	r16,0(sp)
     8a4:	dec00304 	addi	sp,sp,12
     8a8:	f800283a 	ret

000008ac <setMode>:

void setMode(GPU* gpu, int mode) {
     8ac:	defff904 	addi	sp,sp,-28
     8b0:	dfc00615 	stw	ra,24(sp)
     8b4:	df000515 	stw	fp,20(sp)
     8b8:	df000504 	addi	fp,sp,20
     8bc:	e13ffc15 	stw	r4,-16(fp)
     8c0:	e17ffd15 	stw	r5,-12(fp)
    gpu->mode = mode;
     8c4:	e0bffc17 	ldw	r2,-16(fp)
     8c8:	e0fffd17 	ldw	r3,-12(fp)
     8cc:	10c00d15 	stw	r3,52(r2)
    byte newSTAT = readData(gpu->STAT);
     8d0:	e0bffc17 	ldw	r2,-16(fp)
     8d4:	1080008b 	ldhu	r2,2(r2)
     8d8:	10bfffcc 	andi	r2,r2,65535
     8dc:	1009883a 	mov	r4,r2
     8e0:	000026c0 	call	26c <readData>
     8e4:	e0bffb05 	stb	r2,-20(fp)
    newSTAT &= 0xFC;
     8e8:	e0fffb03 	ldbu	r3,-20(fp)
     8ec:	00bfff04 	movi	r2,-4
     8f0:	1884703a 	and	r2,r3,r2
     8f4:	e0bffb05 	stb	r2,-20(fp)
    newSTAT |= mode;
     8f8:	e0bffd17 	ldw	r2,-12(fp)
     8fc:	1007883a 	mov	r3,r2
     900:	e0bffb03 	ldbu	r2,-20(fp)
     904:	1884b03a 	or	r2,r3,r2
     908:	e0bffb05 	stb	r2,-20(fp)
    writeData(gpu->STAT, newSTAT);
     90c:	e0bffc17 	ldw	r2,-16(fp)
     910:	1080008b 	ldhu	r2,2(r2)
     914:	10bfffcc 	andi	r2,r2,65535
     918:	e0fffb03 	ldbu	r3,-20(fp)
     91c:	180b883a 	mov	r5,r3
     920:	1009883a 	mov	r4,r2
     924:	00003640 	call	364 <writeData>
    if (mode < 3) {
        if (newSTAT & (1 << (3+mode))) {
//            requestInterrupt(LCDC);
        }
    }
}
     928:	0001883a 	nop
     92c:	e037883a 	mov	sp,fp
     930:	dfc00117 	ldw	ra,4(sp)
     934:	df000017 	ldw	fp,0(sp)
     938:	dec00204 	addi	sp,sp,8
     93c:	f800283a 	ret

00000940 <drawScanLine>:
void drawBackground(GPU* gpu, byte LCDC, int line, byte* lineBuffer);
void drawSprites(GPU* gpu, byte LCDC, int line, byte* lineBuffer);
void drawScanLine(GPU* gpu, int line) {
     940:	deffd304 	addi	sp,sp,-180
     944:	dfc02c15 	stw	ra,176(sp)
     948:	df002b15 	stw	fp,172(sp)
     94c:	df002b04 	addi	fp,sp,172
     950:	e13ffe15 	stw	r4,-8(fp)
     954:	e17fff15 	stw	r5,-4(fp)
    byte LCDC = readData(gpu->LCDC);
     958:	e0bffe17 	ldw	r2,-8(fp)
     95c:	1080000b 	ldhu	r2,0(r2)
     960:	10bfffcc 	andi	r2,r2,65535
     964:	1009883a 	mov	r4,r2
     968:	000026c0 	call	26c <readData>
     96c:	e0bfd505 	stb	r2,-172(fp)
    byte enable = (LCDC >> 7) & 0x1;
     970:	e0bfd503 	ldbu	r2,-172(fp)
     974:	1004d1fa 	srli	r2,r2,7
     978:	e0bfd545 	stb	r2,-171(fp)
    if (enable == 1) {
     97c:	e0bfd543 	ldbu	r2,-171(fp)
     980:	10800058 	cmpnei	r2,r2,1
     984:	1000071e 	bne	r2,zero,9a4 <drawScanLine+0x64>
        byte lineBuffer[160];
//        drawBackground(gpu, LCDC, line, lineBuffer);
        drawSprites(gpu, LCDC, line, lineBuffer);
     988:	e0bfd503 	ldbu	r2,-172(fp)
     98c:	e0ffd584 	addi	r3,fp,-170
     990:	180f883a 	mov	r7,r3
     994:	e1bfff17 	ldw	r6,-4(fp)
     998:	100b883a 	mov	r5,r2
     99c:	e13ffe17 	ldw	r4,-8(fp)
     9a0:	00011440 	call	1144 <drawSprites>
    }
}
     9a4:	0001883a 	nop
     9a8:	e037883a 	mov	sp,fp
     9ac:	dfc00117 	ldw	ra,4(sp)
     9b0:	df000017 	ldw	fp,0(sp)
     9b4:	dec00204 	addi	sp,sp,8
     9b8:	f800283a 	ret

000009bc <drawFrame>:

void drawWindow(GPU* gpu, byte LCDC);
void render(byte* buffer);
void drawFrame(GPU* gpu) {
     9bc:	defffb04 	addi	sp,sp,-20
     9c0:	dfc00415 	stw	ra,16(sp)
     9c4:	df000315 	stw	fp,12(sp)
     9c8:	df000304 	addi	fp,sp,12
     9cc:	e13fff15 	stw	r4,-4(fp)
    byte LCDC = readData(gpu->LCDC);
     9d0:	e0bfff17 	ldw	r2,-4(fp)
     9d4:	1080000b 	ldhu	r2,0(r2)
     9d8:	10bfffcc 	andi	r2,r2,65535
     9dc:	1009883a 	mov	r4,r2
     9e0:	000026c0 	call	26c <readData>
     9e4:	e0bffe05 	stb	r2,-8(fp)
    byte enable = (LCDC >> 7) & 0x1;
     9e8:	e0bffe03 	ldbu	r2,-8(fp)
     9ec:	1004d1fa 	srli	r2,r2,7
     9f0:	e0bffe45 	stb	r2,-7(fp)
    if (enable == 1) {
     9f4:	e0bffe43 	ldbu	r2,-7(fp)
     9f8:	10800058 	cmpnei	r2,r2,1
     9fc:	1000041e 	bne	r2,zero,a10 <drawFrame+0x54>
        drawWindow(gpu, LCDC);
     a00:	e0bffe03 	ldbu	r2,-8(fp)
     a04:	100b883a 	mov	r5,r2
     a08:	e13fff17 	ldw	r4,-4(fp)
     a0c:	00019400 	call	1940 <drawWindow>
    }
    for(int i = 0; i < 64; i++){
     a10:	e03ffd15 	stw	zero,-12(fp)
     a14:	00000b06 	br	a44 <drawFrame+0x88>
		gpu->usedCache[i] = -1;
     a18:	e0ffff17 	ldw	r3,-4(fp)
     a1c:	e0bffd17 	ldw	r2,-12(fp)
     a20:	1085e444 	addi	r2,r2,6033
     a24:	1085883a 	add	r2,r2,r2
     a28:	1085883a 	add	r2,r2,r2
     a2c:	1885883a 	add	r2,r3,r2
     a30:	00ffffc4 	movi	r3,-1
     a34:	10c00015 	stw	r3,0(r2)
    byte LCDC = readData(gpu->LCDC);
    byte enable = (LCDC >> 7) & 0x1;
    if (enable == 1) {
        drawWindow(gpu, LCDC);
    }
    for(int i = 0; i < 64; i++){
     a38:	e0bffd17 	ldw	r2,-12(fp)
     a3c:	10800044 	addi	r2,r2,1
     a40:	e0bffd15 	stw	r2,-12(fp)
     a44:	e0bffd17 	ldw	r2,-12(fp)
     a48:	10801010 	cmplti	r2,r2,64
     a4c:	103ff21e 	bne	r2,zero,a18 <__alt_data_end+0xfc000a18>
		gpu->usedCache[i] = -1;
	}
    render(gpu->buffer);
     a50:	e0bfff17 	ldw	r2,-4(fp)
     a54:	10800f04 	addi	r2,r2,60
     a58:	1009883a 	mov	r4,r2
     a5c:	00021080 	call	2108 <render>
}
     a60:	0001883a 	nop
     a64:	e037883a 	mov	sp,fp
     a68:	dfc00117 	ldw	ra,4(sp)
     a6c:	df000017 	ldw	fp,0(sp)
     a70:	dec00204 	addi	sp,sp,8
     a74:	f800283a 	ret

00000a78 <drawBackground>:
int getSignedValue(byte v);
void readTileData(int tileIndex, word dataStart, int tileSize, byte* tileData);
void drawTileLine(GPU* gpu, byte* tileData, int line, int xflip, int yflip);
void copyBGTileLine(byte* lineBuffer, byte* tileBuffer, int x);
void copyLineToBuffer(GPU* gpu, byte* lineBuffer, int line);
void drawBackground(GPU* gpu, byte LCDC, int line, byte* lineBuffer) {
     a78:	deffe004 	addi	sp,sp,-128
     a7c:	dfc01f15 	stw	ra,124(sp)
     a80:	df001e15 	stw	fp,120(sp)
     a84:	df001e04 	addi	fp,sp,120
     a88:	e13ffc15 	stw	r4,-16(fp)
     a8c:	2805883a 	mov	r2,r5
     a90:	e1bffe15 	stw	r6,-8(fp)
     a94:	e1ffff15 	stw	r7,-4(fp)
     a98:	e0bffd05 	stb	r2,-12(fp)
    if ((LCDC & 0x1) == 0) {
     a9c:	e0bffd03 	ldbu	r2,-12(fp)
     aa0:	1080004c 	andi	r2,r2,1
     aa4:	1000fa26 	beq	r2,zero,e90 <drawBackground+0x418>
        return;
    }

    word mapStart = ((LCDC >> 3) & 0x1) ? gpu->START_1 : gpu->START_0;
     aa8:	e0bffd03 	ldbu	r2,-12(fp)
     aac:	1004d0fa 	srli	r2,r2,3
     ab0:	10803fcc 	andi	r2,r2,255
     ab4:	1080004c 	andi	r2,r2,1
     ab8:	10000326 	beq	r2,zero,ac8 <drawBackground+0x50>
     abc:	e0bffc17 	ldw	r2,-16(fp)
     ac0:	1080098b 	ldhu	r2,38(r2)
     ac4:	00000206 	br	ad0 <drawBackground+0x58>
     ac8:	e0bffc17 	ldw	r2,-16(fp)
     acc:	1080090b 	ldhu	r2,36(r2)
     ad0:	e0bfef0d 	sth	r2,-68(fp)

    word dataStart;
    bool signedIndex = false;
     ad4:	e03fe415 	stw	zero,-112(fp)

    if (((LCDC >> 4) & 0x1)) {
     ad8:	e0bffd03 	ldbu	r2,-12(fp)
     adc:	1004d13a 	srli	r2,r2,4
     ae0:	10803fcc 	andi	r2,r2,255
     ae4:	1080004c 	andi	r2,r2,1
     ae8:	10000326 	beq	r2,zero,af8 <drawBackground+0x80>
        dataStart = 0x8000;
     aec:	00a00004 	movi	r2,-32768
     af0:	e0bfe30d 	sth	r2,-116(fp)
     af4:	00000406 	br	b08 <drawBackground+0x90>
    } else {
        dataStart = 0x8800;
     af8:	00a20004 	movi	r2,-30720
     afc:	e0bfe30d 	sth	r2,-116(fp)
        signedIndex = true;
     b00:	00800044 	movi	r2,1
     b04:	e0bfe415 	stw	r2,-112(fp)
    }

    byte bgx = readData(gpu->SCX);
     b08:	e0bffc17 	ldw	r2,-16(fp)
     b0c:	1080018b 	ldhu	r2,6(r2)
     b10:	10bfffcc 	andi	r2,r2,65535
     b14:	1009883a 	mov	r4,r2
     b18:	000026c0 	call	26c <readData>
     b1c:	e0bfef85 	stb	r2,-66(fp)
    byte bgy = readData(gpu->SCY);
     b20:	e0bffc17 	ldw	r2,-16(fp)
     b24:	1080010b 	ldhu	r2,4(r2)
     b28:	10bfffcc 	andi	r2,r2,65535
     b2c:	1009883a 	mov	r4,r2
     b30:	000026c0 	call	26c <readData>
     b34:	e0bfefc5 	stb	r2,-65(fp)
    int tileLine = ((line + bgy) & 7);
     b38:	e0ffefc3 	ldbu	r3,-65(fp)
     b3c:	e0bffe17 	ldw	r2,-8(fp)
     b40:	1885883a 	add	r2,r3,r2
     b44:	108001cc 	andi	r2,r2,7
     b48:	e0bff015 	stw	r2,-64(fp)

    // browse BG tilemap for the line to render
    int tileRow = ((((bgy + line) / 8) | 0) & 0x1F);
     b4c:	e0ffefc3 	ldbu	r3,-65(fp)
     b50:	e0bffe17 	ldw	r2,-8(fp)
     b54:	1885883a 	add	r2,r3,r2
     b58:	1000010e 	bge	r2,zero,b60 <drawBackground+0xe8>
     b5c:	108001c4 	addi	r2,r2,7
     b60:	1005d0fa 	srai	r2,r2,3
     b64:	108007cc 	andi	r2,r2,31
     b68:	e0bff115 	stw	r2,-60(fp)
    int firstTile = ((bgx / 8) | 0) + 32 * tileRow;
     b6c:	e0bfef83 	ldbu	r2,-66(fp)
     b70:	1004d0fa 	srli	r2,r2,3
     b74:	10c03fcc 	andi	r3,r2,255
     b78:	e0bff117 	ldw	r2,-60(fp)
     b7c:	1004917a 	slli	r2,r2,5
     b80:	1885883a 	add	r2,r3,r2
     b84:	e0bff215 	stw	r2,-56(fp)
    int lastTile = firstTile + 160 / 8 + 1;
     b88:	e0bff217 	ldw	r2,-56(fp)
     b8c:	10800544 	addi	r2,r2,21
     b90:	e0bfe515 	stw	r2,-108(fp)
    if ((lastTile & 0x1F) < (firstTile & 0x1F)) {
     b94:	e0bfe517 	ldw	r2,-108(fp)
     b98:	10c007cc 	andi	r3,r2,31
     b9c:	e0bff217 	ldw	r2,-56(fp)
     ba0:	108007cc 	andi	r2,r2,31
     ba4:	1880030e 	bge	r3,r2,bb4 <drawBackground+0x13c>
        lastTile -= 32;
     ba8:	e0bfe517 	ldw	r2,-108(fp)
     bac:	10bff804 	addi	r2,r2,-32
     bb0:	e0bfe515 	stw	r2,-108(fp)
    }
    int x = (firstTile & 0x1F) * 8 - bgx; // x position of the first tile's leftmost pixel
     bb4:	e0bff217 	ldw	r2,-56(fp)
     bb8:	108007cc 	andi	r2,r2,31
     bbc:	100690fa 	slli	r3,r2,3
     bc0:	e0bfef83 	ldbu	r2,-66(fp)
     bc4:	1885c83a 	sub	r2,r3,r2
     bc8:	e0bfe615 	stw	r2,-104(fp)
    for (int i = firstTile; i != lastTile; i++) {
     bcc:	e0bff217 	ldw	r2,-56(fp)
     bd0:	e0bfe715 	stw	r2,-100(fp)
     bd4:	0000a606 	br	e70 <drawBackground+0x3f8>
        if ((i & 0x1F) == 0) {
     bd8:	e0bfe717 	ldw	r2,-100(fp)
     bdc:	108007cc 	andi	r2,r2,31
     be0:	1000031e 	bne	r2,zero,bf0 <drawBackground+0x178>
            i -= 32;
     be4:	e0bfe717 	ldw	r2,-100(fp)
     be8:	10bff804 	addi	r2,r2,-32
     bec:	e0bfe715 	stw	r2,-100(fp)
        }
        byte tileIndex = readData(i + mapStart);
     bf0:	e0bfe717 	ldw	r2,-100(fp)
     bf4:	1007883a 	mov	r3,r2
     bf8:	e0bfef0b 	ldhu	r2,-68(fp)
     bfc:	1885883a 	add	r2,r3,r2
     c00:	10bfffcc 	andi	r2,r2,65535
     c04:	1009883a 	mov	r4,r2
     c08:	000026c0 	call	26c <readData>
     c0c:	e0bff305 	stb	r2,-52(fp)

        if (signedIndex == true) {
     c10:	e0bfe417 	ldw	r2,-112(fp)
     c14:	10800058 	cmpnei	r2,r2,1
     c18:	1000061e 	bne	r2,zero,c34 <drawBackground+0x1bc>
            int tileIndex = getSignedValue(tileIndex) + 128;
     c1c:	e0bfe817 	ldw	r2,-96(fp)
     c20:	10803fcc 	andi	r2,r2,255
     c24:	1009883a 	mov	r4,r2
     c28:	000327c0 	call	327c <getSignedValue>
     c2c:	10802004 	addi	r2,r2,128
     c30:	e0bfe815 	stw	r2,-96(fp)
        }


        if(tileIndex >= 64){
     c34:	e0bff303 	ldbu	r2,-52(fp)
     c38:	10801030 	cmpltui	r2,r2,64
     c3c:	1000061e 	bne	r2,zero,c58 <drawBackground+0x1e0>
        	printf("TILE INDEX IS %d", tileIndex);
     c40:	e0bff303 	ldbu	r2,-52(fp)
     c44:	100b883a 	mov	r5,r2
     c48:	010000b4 	movhi	r4,2
     c4c:	2130cc04 	addi	r4,r4,-15568
     c50:	000cf8c0 	call	cf8c <printf>
     c54:	00008306 	br	e64 <drawBackground+0x3ec>
        	//exit(-1);
        	continue;
        }
        bool used = false;
     c58:	e03fe915 	stw	zero,-92(fp)
        for(int u = 0; u < 64; u++){
     c5c:	e03fea15 	stw	zero,-88(fp)
     c60:	00000f06 	br	ca0 <drawBackground+0x228>
        	if(gpu->usedCache[u] == tileIndex) {
     c64:	e0fffc17 	ldw	r3,-16(fp)
     c68:	e0bfea17 	ldw	r2,-88(fp)
     c6c:	1085e444 	addi	r2,r2,6033
     c70:	1085883a 	add	r2,r2,r2
     c74:	1085883a 	add	r2,r2,r2
     c78:	1885883a 	add	r2,r3,r2
     c7c:	10c00017 	ldw	r3,0(r2)
     c80:	e0bff303 	ldbu	r2,-52(fp)
     c84:	1880031e 	bne	r3,r2,c94 <drawBackground+0x21c>
        		used = true;
     c88:	00800044 	movi	r2,1
     c8c:	e0bfe915 	stw	r2,-92(fp)
        		break;
     c90:	00000606 	br	cac <drawBackground+0x234>
        	printf("TILE INDEX IS %d", tileIndex);
        	//exit(-1);
        	continue;
        }
        bool used = false;
        for(int u = 0; u < 64; u++){
     c94:	e0bfea17 	ldw	r2,-88(fp)
     c98:	10800044 	addi	r2,r2,1
     c9c:	e0bfea15 	stw	r2,-88(fp)
     ca0:	e0bfea17 	ldw	r2,-88(fp)
     ca4:	10801010 	cmplti	r2,r2,64
     ca8:	103fee1e 	bne	r2,zero,c64 <__alt_data_end+0xfc000c64>
        		used = true;
        		break;
        	}
        }
        byte tileData[16];
        if(used == true){
     cac:	e0bfe917 	ldw	r2,-92(fp)
     cb0:	10800058 	cmpnei	r2,r2,1
     cb4:	1000151e 	bne	r2,zero,d0c <drawBackground+0x294>
        	for(int k = 0; k < 16; k++) {
     cb8:	e03feb15 	stw	zero,-84(fp)
     cbc:	00000f06 	br	cfc <drawBackground+0x284>
        		tileData[k] = gpu->bgTileCache[tileIndex][k];
     cc0:	e0bff303 	ldbu	r2,-52(fp)
     cc4:	e0fffc17 	ldw	r3,-16(fp)
     cc8:	1004913a 	slli	r2,r2,4
     ccc:	1887883a 	add	r3,r3,r2
     cd0:	e0bfeb17 	ldw	r2,-84(fp)
     cd4:	1885883a 	add	r2,r3,r2
     cd8:	10969104 	addi	r2,r2,23108
     cdc:	10c00003 	ldbu	r3,0(r2)
     ce0:	e13ff344 	addi	r4,fp,-51
     ce4:	e0bfeb17 	ldw	r2,-84(fp)
     ce8:	2085883a 	add	r2,r4,r2
     cec:	10c00005 	stb	r3,0(r2)
        		break;
        	}
        }
        byte tileData[16];
        if(used == true){
        	for(int k = 0; k < 16; k++) {
     cf0:	e0bfeb17 	ldw	r2,-84(fp)
     cf4:	10800044 	addi	r2,r2,1
     cf8:	e0bfeb15 	stw	r2,-84(fp)
     cfc:	e0bfeb17 	ldw	r2,-84(fp)
     d00:	10800410 	cmplti	r2,r2,16
     d04:	103fee1e 	bne	r2,zero,cc0 <__alt_data_end+0xfc000cc0>
     d08:	00004606 	br	e24 <drawBackground+0x3ac>
        		tileData[k] = gpu->bgTileCache[tileIndex][k];
        	}
        }else {

        	byte td[16];
        	readTileData(tileIndex, dataStart, 16, td);
     d0c:	e0bff303 	ldbu	r2,-52(fp)
     d10:	e0ffe30b 	ldhu	r3,-116(fp)
     d14:	e13ff744 	addi	r4,fp,-35
     d18:	200f883a 	mov	r7,r4
     d1c:	01800404 	movi	r6,16
     d20:	180b883a 	mov	r5,r3
     d24:	1009883a 	mov	r4,r2
     d28:	00018880 	call	1888 <readTileData>
        	for(int k = 0; k < 16; k++){
     d2c:	e03fec15 	stw	zero,-80(fp)
     d30:	00000f06 	br	d70 <drawBackground+0x2f8>
        		gpu->bgTileCache[tileIndex][k] = td[k];
     d34:	e0bff303 	ldbu	r2,-52(fp)
     d38:	e13ff744 	addi	r4,fp,-35
     d3c:	e0ffec17 	ldw	r3,-80(fp)
     d40:	20c7883a 	add	r3,r4,r3
     d44:	18c00003 	ldbu	r3,0(r3)
     d48:	e13ffc17 	ldw	r4,-16(fp)
     d4c:	1004913a 	slli	r2,r2,4
     d50:	2089883a 	add	r4,r4,r2
     d54:	e0bfec17 	ldw	r2,-80(fp)
     d58:	2085883a 	add	r2,r4,r2
     d5c:	10969104 	addi	r2,r2,23108
     d60:	10c00005 	stb	r3,0(r2)
        	}
        }else {

        	byte td[16];
        	readTileData(tileIndex, dataStart, 16, td);
        	for(int k = 0; k < 16; k++){
     d64:	e0bfec17 	ldw	r2,-80(fp)
     d68:	10800044 	addi	r2,r2,1
     d6c:	e0bfec15 	stw	r2,-80(fp)
     d70:	e0bfec17 	ldw	r2,-80(fp)
     d74:	10800410 	cmplti	r2,r2,16
     d78:	103fee1e 	bne	r2,zero,d34 <__alt_data_end+0xfc000d34>
        		gpu->bgTileCache[tileIndex][k] = td[k];
        	}
        	for(int a = 0; a < 64; a++){
     d7c:	e03fed15 	stw	zero,-76(fp)
     d80:	00001506 	br	dd8 <drawBackground+0x360>
				if(gpu->usedCache[a] == -1) {
     d84:	e0fffc17 	ldw	r3,-16(fp)
     d88:	e0bfed17 	ldw	r2,-76(fp)
     d8c:	1085e444 	addi	r2,r2,6033
     d90:	1085883a 	add	r2,r2,r2
     d94:	1085883a 	add	r2,r2,r2
     d98:	1885883a 	add	r2,r3,r2
     d9c:	10800017 	ldw	r2,0(r2)
     da0:	10bfffd8 	cmpnei	r2,r2,-1
     da4:	1000091e 	bne	r2,zero,dcc <drawBackground+0x354>
					gpu->usedCache[a] = tileIndex;
     da8:	e0fff303 	ldbu	r3,-52(fp)
     dac:	e13ffc17 	ldw	r4,-16(fp)
     db0:	e0bfed17 	ldw	r2,-76(fp)
     db4:	1085e444 	addi	r2,r2,6033
     db8:	1085883a 	add	r2,r2,r2
     dbc:	1085883a 	add	r2,r2,r2
     dc0:	2085883a 	add	r2,r4,r2
     dc4:	10c00015 	stw	r3,0(r2)
					break;
     dc8:	00000606 	br	de4 <drawBackground+0x36c>
        	byte td[16];
        	readTileData(tileIndex, dataStart, 16, td);
        	for(int k = 0; k < 16; k++){
        		gpu->bgTileCache[tileIndex][k] = td[k];
        	}
        	for(int a = 0; a < 64; a++){
     dcc:	e0bfed17 	ldw	r2,-76(fp)
     dd0:	10800044 	addi	r2,r2,1
     dd4:	e0bfed15 	stw	r2,-76(fp)
     dd8:	e0bfed17 	ldw	r2,-76(fp)
     ddc:	10801010 	cmplti	r2,r2,64
     de0:	103fe81e 	bne	r2,zero,d84 <__alt_data_end+0xfc000d84>
				if(gpu->usedCache[a] == -1) {
					gpu->usedCache[a] = tileIndex;
					break;
				}
			}
        	for(int k = 0; k < 16; k++) {
     de4:	e03fee15 	stw	zero,-72(fp)
     de8:	00000b06 	br	e18 <drawBackground+0x3a0>
				tileData[k] = td[k];
     dec:	e0fff744 	addi	r3,fp,-35
     df0:	e0bfee17 	ldw	r2,-72(fp)
     df4:	1885883a 	add	r2,r3,r2
     df8:	10c00003 	ldbu	r3,0(r2)
     dfc:	e13ff344 	addi	r4,fp,-51
     e00:	e0bfee17 	ldw	r2,-72(fp)
     e04:	2085883a 	add	r2,r4,r2
     e08:	10c00005 	stb	r3,0(r2)
				if(gpu->usedCache[a] == -1) {
					gpu->usedCache[a] = tileIndex;
					break;
				}
			}
        	for(int k = 0; k < 16; k++) {
     e0c:	e0bfee17 	ldw	r2,-72(fp)
     e10:	10800044 	addi	r2,r2,1
     e14:	e0bfee15 	stw	r2,-72(fp)
     e18:	e0bfee17 	ldw	r2,-72(fp)
     e1c:	10800410 	cmplti	r2,r2,16
     e20:	103ff21e 	bne	r2,zero,dec <__alt_data_end+0xfc000dec>
				tileData[k] = td[k];
			}
        }

        drawTileLine(gpu, tileData, tileLine, 0, 0);
     e24:	e0bff344 	addi	r2,fp,-51
     e28:	d8000015 	stw	zero,0(sp)
     e2c:	000f883a 	mov	r7,zero
     e30:	e1bff017 	ldw	r6,-64(fp)
     e34:	100b883a 	mov	r5,r2
     e38:	e13ffc17 	ldw	r4,-16(fp)
     e3c:	0000ff40 	call	ff4 <drawTileLine>
        copyBGTileLine(lineBuffer, gpu->tileBuffer, x);
     e40:	e0bffc17 	ldw	r2,-16(fp)
     e44:	10968f04 	addi	r2,r2,23100
     e48:	e1bfe617 	ldw	r6,-104(fp)
     e4c:	100b883a 	mov	r5,r2
     e50:	e13fff17 	ldw	r4,-4(fp)
     e54:	0000ea80 	call	ea8 <copyBGTileLine>
        x += 8;
     e58:	e0bfe617 	ldw	r2,-104(fp)
     e5c:	10800204 	addi	r2,r2,8
     e60:	e0bfe615 	stw	r2,-104(fp)
    int lastTile = firstTile + 160 / 8 + 1;
    if ((lastTile & 0x1F) < (firstTile & 0x1F)) {
        lastTile -= 32;
    }
    int x = (firstTile & 0x1F) * 8 - bgx; // x position of the first tile's leftmost pixel
    for (int i = firstTile; i != lastTile; i++) {
     e64:	e0bfe717 	ldw	r2,-100(fp)
     e68:	10800044 	addi	r2,r2,1
     e6c:	e0bfe715 	stw	r2,-100(fp)
     e70:	e0ffe717 	ldw	r3,-100(fp)
     e74:	e0bfe517 	ldw	r2,-108(fp)
     e78:	18bf571e 	bne	r3,r2,bd8 <__alt_data_end+0xfc000bd8>
        drawTileLine(gpu, tileData, tileLine, 0, 0);
        copyBGTileLine(lineBuffer, gpu->tileBuffer, x);
        x += 8;
    }

    copyLineToBuffer(gpu, lineBuffer, line);
     e7c:	e1bffe17 	ldw	r6,-8(fp)
     e80:	e17fff17 	ldw	r5,-4(fp)
     e84:	e13ffc17 	ldw	r4,-16(fp)
     e88:	0000f3c0 	call	f3c <copyLineToBuffer>
     e8c:	00000106 	br	e94 <drawBackground+0x41c>
void drawTileLine(GPU* gpu, byte* tileData, int line, int xflip, int yflip);
void copyBGTileLine(byte* lineBuffer, byte* tileBuffer, int x);
void copyLineToBuffer(GPU* gpu, byte* lineBuffer, int line);
void drawBackground(GPU* gpu, byte LCDC, int line, byte* lineBuffer) {
    if ((LCDC & 0x1) == 0) {
        return;
     e90:	0001883a 	nop
        copyBGTileLine(lineBuffer, gpu->tileBuffer, x);
        x += 8;
    }

    copyLineToBuffer(gpu, lineBuffer, line);
}
     e94:	e037883a 	mov	sp,fp
     e98:	dfc00117 	ldw	ra,4(sp)
     e9c:	df000017 	ldw	fp,0(sp)
     ea0:	dec00204 	addi	sp,sp,8
     ea4:	f800283a 	ret

00000ea8 <copyBGTileLine>:

// Copy a tile line from a tileBuffer to a line buffer, at a given x position
void copyBGTileLine(byte* lineBuffer, byte* tileBuffer, int x) {
     ea8:	defffb04 	addi	sp,sp,-20
     eac:	df000415 	stw	fp,16(sp)
     eb0:	df000404 	addi	fp,sp,16
     eb4:	e13ffd15 	stw	r4,-12(fp)
     eb8:	e17ffe15 	stw	r5,-8(fp)
     ebc:	e1bfff15 	stw	r6,-4(fp)
    // copy tile line to buffer
    for (int k = 0; k < 8; k++, x++) {
     ec0:	e03ffc15 	stw	zero,-16(fp)
     ec4:	00001506 	br	f1c <copyBGTileLine+0x74>
        if (x < 0 || x >= 160) continue;
     ec8:	e0bfff17 	ldw	r2,-4(fp)
     ecc:	10000c16 	blt	r2,zero,f00 <copyBGTileLine+0x58>
     ed0:	e0bfff17 	ldw	r2,-4(fp)
     ed4:	10802810 	cmplti	r2,r2,160
     ed8:	10000926 	beq	r2,zero,f00 <copyBGTileLine+0x58>
        lineBuffer[x] = tileBuffer[k];
     edc:	e0bfff17 	ldw	r2,-4(fp)
     ee0:	e0fffd17 	ldw	r3,-12(fp)
     ee4:	1885883a 	add	r2,r3,r2
     ee8:	e0fffc17 	ldw	r3,-16(fp)
     eec:	e13ffe17 	ldw	r4,-8(fp)
     ef0:	20c7883a 	add	r3,r4,r3
     ef4:	18c00003 	ldbu	r3,0(r3)
     ef8:	10c00005 	stb	r3,0(r2)
     efc:	00000106 	br	f04 <copyBGTileLine+0x5c>

// Copy a tile line from a tileBuffer to a line buffer, at a given x position
void copyBGTileLine(byte* lineBuffer, byte* tileBuffer, int x) {
    // copy tile line to buffer
    for (int k = 0; k < 8; k++, x++) {
        if (x < 0 || x >= 160) continue;
     f00:	0001883a 	nop
}

// Copy a tile line from a tileBuffer to a line buffer, at a given x position
void copyBGTileLine(byte* lineBuffer, byte* tileBuffer, int x) {
    // copy tile line to buffer
    for (int k = 0; k < 8; k++, x++) {
     f04:	e0bffc17 	ldw	r2,-16(fp)
     f08:	10800044 	addi	r2,r2,1
     f0c:	e0bffc15 	stw	r2,-16(fp)
     f10:	e0bfff17 	ldw	r2,-4(fp)
     f14:	10800044 	addi	r2,r2,1
     f18:	e0bfff15 	stw	r2,-4(fp)
     f1c:	e0bffc17 	ldw	r2,-16(fp)
     f20:	10800210 	cmplti	r2,r2,8
     f24:	103fe81e 	bne	r2,zero,ec8 <__alt_data_end+0xfc000ec8>
        if (x < 0 || x >= 160) continue;
        lineBuffer[x] = tileBuffer[k];
    }
}
     f28:	0001883a 	nop
     f2c:	e037883a 	mov	sp,fp
     f30:	df000017 	ldw	fp,0(sp)
     f34:	dec00104 	addi	sp,sp,4
     f38:	f800283a 	ret

00000f3c <copyLineToBuffer>:

void getPalette(byte paletteByte, byte* palette);
void drawPixel(GPU* gpu, int x, int y, byte color);
void copyLineToBuffer(GPU* gpu, byte* lineBuffer, int line) {
     f3c:	defff804 	addi	sp,sp,-32
     f40:	dfc00715 	stw	ra,28(sp)
     f44:	df000615 	stw	fp,24(sp)
     f48:	df000604 	addi	fp,sp,24
     f4c:	e13ffd15 	stw	r4,-12(fp)
     f50:	e17ffe15 	stw	r5,-8(fp)
     f54:	e1bfff15 	stw	r6,-4(fp)
	byte bgPalette[4];
    getPalette(readData(gpu->BGP), bgPalette);
     f58:	e0bffd17 	ldw	r2,-12(fp)
     f5c:	1080030b 	ldhu	r2,12(r2)
     f60:	10bfffcc 	andi	r2,r2,65535
     f64:	1009883a 	mov	r4,r2
     f68:	000026c0 	call	26c <readData>
     f6c:	10803fcc 	andi	r2,r2,255
     f70:	e0fffb44 	addi	r3,fp,-19
     f74:	180b883a 	mov	r5,r3
     f78:	1009883a 	mov	r4,r2
     f7c:	00020780 	call	2078 <getPalette>

    for (int x = 0; x < 160; x++) {
     f80:	e03ffa15 	stw	zero,-24(fp)
     f84:	00001206 	br	fd0 <copyLineToBuffer+0x94>
        byte color = lineBuffer[x];
     f88:	e0bffa17 	ldw	r2,-24(fp)
     f8c:	e0fffe17 	ldw	r3,-8(fp)
     f90:	1885883a 	add	r2,r3,r2
     f94:	10800003 	ldbu	r2,0(r2)
     f98:	e0bffb05 	stb	r2,-20(fp)
        drawPixel(gpu, x, line, bgPalette[color]);
     f9c:	e0bffb03 	ldbu	r2,-20(fp)
     fa0:	e0fffb44 	addi	r3,fp,-19
     fa4:	1885883a 	add	r2,r3,r2
     fa8:	10800003 	ldbu	r2,0(r2)
     fac:	10803fcc 	andi	r2,r2,255
     fb0:	100f883a 	mov	r7,r2
     fb4:	e1bfff17 	ldw	r6,-4(fp)
     fb8:	e17ffa17 	ldw	r5,-24(fp)
     fbc:	e13ffd17 	ldw	r4,-12(fp)
     fc0:	0001fb80 	call	1fb8 <drawPixel>
void drawPixel(GPU* gpu, int x, int y, byte color);
void copyLineToBuffer(GPU* gpu, byte* lineBuffer, int line) {
	byte bgPalette[4];
    getPalette(readData(gpu->BGP), bgPalette);

    for (int x = 0; x < 160; x++) {
     fc4:	e0bffa17 	ldw	r2,-24(fp)
     fc8:	10800044 	addi	r2,r2,1
     fcc:	e0bffa15 	stw	r2,-24(fp)
     fd0:	e0bffa17 	ldw	r2,-24(fp)
     fd4:	10802810 	cmplti	r2,r2,160
     fd8:	103feb1e 	bne	r2,zero,f88 <__alt_data_end+0xfc000f88>
        byte color = lineBuffer[x];
        drawPixel(gpu, x, line, bgPalette[color]);
    }
}
     fdc:	0001883a 	nop
     fe0:	e037883a 	mov	sp,fp
     fe4:	dfc00117 	ldw	ra,4(sp)
     fe8:	df000017 	ldw	fp,0(sp)
     fec:	dec00204 	addi	sp,sp,8
     ff0:	f800283a 	ret

00000ff4 <drawTileLine>:

// Write a line of a tile (8 pixels) into a buffer array
void drawTileLine(GPU* gpu, byte* tileData, int line, int xflip, int yflip) {
     ff4:	defff304 	addi	sp,sp,-52
     ff8:	df000c15 	stw	fp,48(sp)
     ffc:	df000c04 	addi	fp,sp,48
    1000:	e13ffc15 	stw	r4,-16(fp)
    1004:	e17ffd15 	stw	r5,-12(fp)
    1008:	e1bffe15 	stw	r6,-8(fp)
    100c:	e1ffff15 	stw	r7,-4(fp)
    xflip = xflip | 0;
    yflip = yflip | 0;
    int l = (yflip == 1) ? 7 - line : line;
    1010:	e0800117 	ldw	r2,4(fp)
    1014:	10800058 	cmpnei	r2,r2,1
    1018:	1000041e 	bne	r2,zero,102c <drawTileLine+0x38>
    101c:	00c001c4 	movi	r3,7
    1020:	e0bffe17 	ldw	r2,-8(fp)
    1024:	1885c83a 	sub	r2,r3,r2
    1028:	00000106 	br	1030 <drawTileLine+0x3c>
    102c:	e0bffe17 	ldw	r2,-8(fp)
    1030:	e0bff615 	stw	r2,-40(fp)
    int byteIndex = l * 2;
    1034:	e0bff617 	ldw	r2,-40(fp)
    1038:	1085883a 	add	r2,r2,r2
    103c:	e0bff715 	stw	r2,-36(fp)
    byte b1 = tileData[byteIndex++];
    1040:	e0bff717 	ldw	r2,-36(fp)
    1044:	10c00044 	addi	r3,r2,1
    1048:	e0fff715 	stw	r3,-36(fp)
    104c:	1007883a 	mov	r3,r2
    1050:	e0bffd17 	ldw	r2,-12(fp)
    1054:	10c5883a 	add	r2,r2,r3
    1058:	10800003 	ldbu	r2,0(r2)
    105c:	e0bff805 	stb	r2,-32(fp)
    byte b2 = tileData[byteIndex++];
    1060:	e0bff717 	ldw	r2,-36(fp)
    1064:	10c00044 	addi	r3,r2,1
    1068:	e0fff715 	stw	r3,-36(fp)
    106c:	1007883a 	mov	r3,r2
    1070:	e0bffd17 	ldw	r2,-12(fp)
    1074:	10c5883a 	add	r2,r2,r3
    1078:	10800003 	ldbu	r2,0(r2)
    107c:	e0bff845 	stb	r2,-31(fp)

    int offset = 8;
    1080:	00800204 	movi	r2,8
    1084:	e0bff415 	stw	r2,-48(fp)
    for (int pixel = 0; pixel < 8; pixel++) {
    1088:	e03ff515 	stw	zero,-44(fp)
    108c:	00002506 	br	1124 <drawTileLine+0x130>
        offset--;
    1090:	e0bff417 	ldw	r2,-48(fp)
    1094:	10bfffc4 	addi	r2,r2,-1
    1098:	e0bff415 	stw	r2,-48(fp)
        int mask = (1 << offset);
    109c:	00c00044 	movi	r3,1
    10a0:	e0bff417 	ldw	r2,-48(fp)
    10a4:	1884983a 	sll	r2,r3,r2
    10a8:	e0bff915 	stw	r2,-28(fp)
        byte colorValue = ((b1 & mask) >> offset) + ((b2 & mask) >> offset)*2;
    10ac:	e0fff803 	ldbu	r3,-32(fp)
    10b0:	e0bff917 	ldw	r2,-28(fp)
    10b4:	1886703a 	and	r3,r3,r2
    10b8:	e0bff417 	ldw	r2,-48(fp)
    10bc:	1885d83a 	sra	r2,r3,r2
    10c0:	1009883a 	mov	r4,r2
    10c4:	e0fff843 	ldbu	r3,-31(fp)
    10c8:	e0bff917 	ldw	r2,-28(fp)
    10cc:	1886703a 	and	r3,r3,r2
    10d0:	e0bff417 	ldw	r2,-48(fp)
    10d4:	1885d83a 	sra	r2,r3,r2
    10d8:	1085883a 	add	r2,r2,r2
    10dc:	2085883a 	add	r2,r4,r2
    10e0:	e0bffa05 	stb	r2,-24(fp)
        int p = (xflip == 1) ? offset : pixel;
    10e4:	e0bfff17 	ldw	r2,-4(fp)
    10e8:	10800058 	cmpnei	r2,r2,1
    10ec:	1000021e 	bne	r2,zero,10f8 <drawTileLine+0x104>
    10f0:	e0bff417 	ldw	r2,-48(fp)
    10f4:	00000106 	br	10fc <drawTileLine+0x108>
    10f8:	e0bff517 	ldw	r2,-44(fp)
    10fc:	e0bffb15 	stw	r2,-20(fp)
        gpu->tileBuffer[p] = colorValue;
    1100:	e0fffc17 	ldw	r3,-16(fp)
    1104:	e0bffb17 	ldw	r2,-20(fp)
    1108:	1885883a 	add	r2,r3,r2
    110c:	10968f04 	addi	r2,r2,23100
    1110:	e0fffa03 	ldbu	r3,-24(fp)
    1114:	10c00005 	stb	r3,0(r2)
    int byteIndex = l * 2;
    byte b1 = tileData[byteIndex++];
    byte b2 = tileData[byteIndex++];

    int offset = 8;
    for (int pixel = 0; pixel < 8; pixel++) {
    1118:	e0bff517 	ldw	r2,-44(fp)
    111c:	10800044 	addi	r2,r2,1
    1120:	e0bff515 	stw	r2,-44(fp)
    1124:	e0bff517 	ldw	r2,-44(fp)
    1128:	10800210 	cmplti	r2,r2,8
    112c:	103fd81e 	bne	r2,zero,1090 <__alt_data_end+0xfc001090>
        int mask = (1 << offset);
        byte colorValue = ((b1 & mask) >> offset) + ((b2 & mask) >> offset)*2;
        int p = (xflip == 1) ? offset : pixel;
        gpu->tileBuffer[p] = colorValue;
    }
}
    1130:	0001883a 	nop
    1134:	e037883a 	mov	sp,fp
    1138:	df000017 	ldw	fp,0(sp)
    113c:	dec00104 	addi	sp,sp,4
    1140:	f800283a 	ret

00001144 <drawSprites>:
    byte palette;
}SpriteLine;

void copySpriteTileLine(SpriteLine* lineBuffer, byte* tileBuffer, int x, byte palette);
void copySpriteLineToBuffer(GPU* gpu, SpriteLine* spriteLineBuffer, int line);
void drawSprites(GPU* gpu, byte LCDC, int line, byte* lineBuffer) {
    1144:	deff8a04 	addi	sp,sp,-472
    1148:	dfc07515 	stw	ra,468(sp)
    114c:	df007415 	stw	fp,464(sp)
    1150:	ddc07315 	stw	r23,460(sp)
    1154:	dd807215 	stw	r22,456(sp)
    1158:	dd407115 	stw	r21,452(sp)
    115c:	dd007015 	stw	r20,448(sp)
    1160:	dcc06f15 	stw	r19,444(sp)
    1164:	dc806e15 	stw	r18,440(sp)
    1168:	dc406d15 	stw	r17,436(sp)
    116c:	dc006c15 	stw	r16,432(sp)
    1170:	df007404 	addi	fp,sp,464
    1174:	e13ff315 	stw	r4,-52(fp)
    1178:	2805883a 	mov	r2,r5
    117c:	e1bff515 	stw	r6,-44(fp)
    1180:	e1fff615 	stw	r7,-40(fp)
    1184:	e0bff405 	stb	r2,-48(fp)
    if (((LCDC >> 1) & 0x1) == 0) {
    1188:	e0bff403 	ldbu	r2,-48(fp)
    118c:	1004d07a 	srli	r2,r2,1
    1190:	10803fcc 	andi	r2,r2,255
    1194:	1080004c 	andi	r2,r2,1
    1198:	1000b926 	beq	r2,zero,1480 <drawSprites+0x33c>
        return;
    }

    int spriteHeight = ((LCDC >> 2) & 0x1) == 1 ? 16 : 8;
    119c:	e0bff403 	ldbu	r2,-48(fp)
    11a0:	1004d0ba 	srli	r2,r2,2
    11a4:	10803fcc 	andi	r2,r2,255
    11a8:	1080004c 	andi	r2,r2,1
    11ac:	10000226 	beq	r2,zero,11b8 <drawSprites+0x74>
    11b0:	00800404 	movi	r2,16
    11b4:	00000106 	br	11bc <drawSprites+0x78>
    11b8:	00800204 	movi	r2,8
    11bc:	e0bf9015 	stw	r2,-448(fp)

    Sprite sprites[9];
    int counter = 0;
    11c0:	e03f8d15 	stw	zero,-460(fp)

    for (word i = gpu->OAM_START; i < gpu->OAM_END && counter < 9; i += 4) {
    11c4:	e0bff317 	ldw	r2,-52(fp)
    11c8:	1080058b 	ldhu	r2,22(r2)
    11cc:	e0bf8e0d 	sth	r2,-456(fp)
    11d0:	00003806 	br	12b4 <drawSprites+0x170>
        byte y = readData(i);
    11d4:	e0bf8e0b 	ldhu	r2,-456(fp)
    11d8:	1009883a 	mov	r4,r2
    11dc:	000026c0 	call	26c <readData>
    11e0:	e0bf9105 	stb	r2,-444(fp)
        byte x = readData(i+1);
    11e4:	e0bf8e0b 	ldhu	r2,-456(fp)
    11e8:	10800044 	addi	r2,r2,1
    11ec:	10bfffcc 	andi	r2,r2,65535
    11f0:	1009883a 	mov	r4,r2
    11f4:	000026c0 	call	26c <readData>
    11f8:	e0bf9145 	stb	r2,-443(fp)
        byte index = readData(i+2);
    11fc:	e0bf8e0b 	ldhu	r2,-456(fp)
    1200:	10800084 	addi	r2,r2,2
    1204:	10bfffcc 	andi	r2,r2,65535
    1208:	1009883a 	mov	r4,r2
    120c:	000026c0 	call	26c <readData>
    1210:	e0bf9185 	stb	r2,-442(fp)
        byte flags = readData(i+3);
    1214:	e0bf8e0b 	ldhu	r2,-456(fp)
    1218:	108000c4 	addi	r2,r2,3
    121c:	10bfffcc 	andi	r2,r2,65535
    1220:	1009883a 	mov	r4,r2
    1224:	000026c0 	call	26c <readData>
    1228:	e0bf91c5 	stb	r2,-441(fp)

        if (y - 16 > line || y - 16 < line - spriteHeight) {
    122c:	e0bf9103 	ldbu	r2,-444(fp)
    1230:	10bffc04 	addi	r2,r2,-16
    1234:	e0fff517 	ldw	r3,-44(fp)
    1238:	18801a16 	blt	r3,r2,12a4 <drawSprites+0x160>
    123c:	e0bf9103 	ldbu	r2,-444(fp)
    1240:	10fffc04 	addi	r3,r2,-16
    1244:	e13ff517 	ldw	r4,-44(fp)
    1248:	e0bf9017 	ldw	r2,-448(fp)
    124c:	2085c83a 	sub	r2,r4,r2
    1250:	18801416 	blt	r3,r2,12a4 <drawSprites+0x160>
            continue;
        }

        Sprite s;
        s.x = x;
    1254:	e0bf9143 	ldbu	r2,-443(fp)
    1258:	e0bff105 	stb	r2,-60(fp)
        s.y = y;
    125c:	e0bf9103 	ldbu	r2,-444(fp)
    1260:	e0bff145 	stb	r2,-59(fp)
        s.index = index;
    1264:	e0bf9183 	ldbu	r2,-442(fp)
    1268:	e0bff185 	stb	r2,-58(fp)
        s.flags = flags;
    126c:	e0bf91c3 	ldbu	r2,-441(fp)
    1270:	e0bff1c5 	stb	r2,-57(fp)

        sprites[counter] = s;
    1274:	e0bf8d17 	ldw	r2,-460(fp)
    1278:	1085883a 	add	r2,r2,r2
    127c:	1085883a 	add	r2,r2,r2
    1280:	e0ff8d04 	addi	r3,fp,-460
    1284:	1885883a 	add	r2,r3,r2
    1288:	10800b04 	addi	r2,r2,44
    128c:	e0fff117 	ldw	r3,-60(fp)
    1290:	10c00015 	stw	r3,0(r2)
        counter++;
    1294:	e0bf8d17 	ldw	r2,-460(fp)
    1298:	10800044 	addi	r2,r2,1
    129c:	e0bf8d15 	stw	r2,-460(fp)
    12a0:	00000106 	br	12a8 <drawSprites+0x164>
        byte x = readData(i+1);
        byte index = readData(i+2);
        byte flags = readData(i+3);

        if (y - 16 > line || y - 16 < line - spriteHeight) {
            continue;
    12a4:	0001883a 	nop
    int spriteHeight = ((LCDC >> 2) & 0x1) == 1 ? 16 : 8;

    Sprite sprites[9];
    int counter = 0;

    for (word i = gpu->OAM_START; i < gpu->OAM_END && counter < 9; i += 4) {
    12a8:	e0bf8e0b 	ldhu	r2,-456(fp)
    12ac:	10800104 	addi	r2,r2,4
    12b0:	e0bf8e0d 	sth	r2,-456(fp)
    12b4:	e0bff317 	ldw	r2,-52(fp)
    12b8:	1080060b 	ldhu	r2,24(r2)
    12bc:	10bfffcc 	andi	r2,r2,65535
    12c0:	e0ff8e0b 	ldhu	r3,-456(fp)
    12c4:	1880032e 	bgeu	r3,r2,12d4 <drawSprites+0x190>
    12c8:	e0bf8d17 	ldw	r2,-460(fp)
    12cc:	10800250 	cmplti	r2,r2,9
    12d0:	103fc01e 	bne	r2,zero,11d4 <__alt_data_end+0xfc0011d4>

        sprites[counter] = s;
        counter++;
    }

    if (counter == 0) return;
    12d4:	e0bf8d17 	ldw	r2,-460(fp)
    12d8:	10006b26 	beq	r2,zero,1488 <drawSprites+0x344>

    // cache object to store read tiles from this frame
//    byte cacheTile[100][16];
    SpriteLine spriteLineBuffer[160];

    for (int i = 0; i < 9; i++) {
    12dc:	e03f8f15 	stw	zero,-452(fp)
    12e0:	00005e06 	br	145c <drawSprites+0x318>
    12e4:	d805883a 	mov	r2,sp
    12e8:	e0bff715 	stw	r2,-36(fp)
        Sprite sprite = sprites[i];
    12ec:	e0bf8f17 	ldw	r2,-452(fp)
    12f0:	1085883a 	add	r2,r2,r2
    12f4:	1085883a 	add	r2,r2,r2
    12f8:	e0ff8d04 	addi	r3,fp,-460
    12fc:	1885883a 	add	r2,r3,r2
    1300:	10800b04 	addi	r2,r2,44
    1304:	10800017 	ldw	r2,0(r2)
    1308:	e0bff215 	stw	r2,-56(fp)
        int tileLine = line - sprite.y + 16;
    130c:	e0bff243 	ldbu	r2,-55(fp)
    1310:	10803fcc 	andi	r2,r2,255
    1314:	e0fff517 	ldw	r3,-44(fp)
    1318:	1885c83a 	sub	r2,r3,r2
    131c:	10800404 	addi	r2,r2,16
    1320:	e0bf9215 	stw	r2,-440(fp)
        byte paletteNumber = (sprite.flags >> 4) & 0x1;
    1324:	e0bff2c3 	ldbu	r2,-53(fp)
    1328:	10803fcc 	andi	r2,r2,255
    132c:	1004d13a 	srli	r2,r2,4
    1330:	1080004c 	andi	r2,r2,1
    1334:	e0bf9305 	stb	r2,-436(fp)
        int xflip = (sprite.flags >> 5) & 0x1;
    1338:	e0bff2c3 	ldbu	r2,-53(fp)
    133c:	10803fcc 	andi	r2,r2,255
    1340:	1004d17a 	srli	r2,r2,5
    1344:	10803fcc 	andi	r2,r2,255
    1348:	1080004c 	andi	r2,r2,1
    134c:	e0bf9415 	stw	r2,-432(fp)
        int yflip = (sprite.flags >> 6) & 0x1;
    1350:	e0bff2c3 	ldbu	r2,-53(fp)
    1354:	10803fcc 	andi	r2,r2,255
    1358:	1004d1ba 	srli	r2,r2,6
    135c:	10803fcc 	andi	r2,r2,255
    1360:	1080004c 	andi	r2,r2,1
    1364:	e0bf9515 	stw	r2,-428(fp)
        byte tileData[spriteHeight * 2];
    1368:	e0bf9017 	ldw	r2,-448(fp)
    136c:	1085883a 	add	r2,r2,r2
    1370:	10ffffc4 	addi	r3,r2,-1
    1374:	e0ff9615 	stw	r3,-424(fp)
    1378:	1007883a 	mov	r3,r2
    137c:	1829883a 	mov	r20,r3
    1380:	002b883a 	mov	r21,zero
    1384:	a006d77a 	srli	r3,r20,29
    1388:	a82290fa 	slli	r17,r21,3
    138c:	1c62b03a 	or	r17,r3,r17
    1390:	a02090fa 	slli	r16,r20,3
    1394:	1007883a 	mov	r3,r2
    1398:	182d883a 	mov	r22,r3
    139c:	002f883a 	mov	r23,zero
    13a0:	b006d77a 	srli	r3,r22,29
    13a4:	b82690fa 	slli	r19,r23,3
    13a8:	1ce6b03a 	or	r19,r3,r19
    13ac:	b02490fa 	slli	r18,r22,3
    13b0:	108000c4 	addi	r2,r2,3
    13b4:	1004d0ba 	srli	r2,r2,2
    13b8:	1085883a 	add	r2,r2,r2
    13bc:	1085883a 	add	r2,r2,r2
    13c0:	d8b7c83a 	sub	sp,sp,r2
    13c4:	d8800104 	addi	r2,sp,4
    13c8:	1005883a 	mov	r2,r2
    13cc:	e0bf9715 	stw	r2,-420(fp)
        readTileData(sprite.index, 0x8000, spriteHeight * 2, tileData);
    13d0:	e0bff283 	ldbu	r2,-54(fp)
    13d4:	10c03fcc 	andi	r3,r2,255
    13d8:	e0bf9017 	ldw	r2,-448(fp)
    13dc:	1085883a 	add	r2,r2,r2
    13e0:	1009883a 	mov	r4,r2
    13e4:	e0bf9717 	ldw	r2,-420(fp)
    13e8:	100f883a 	mov	r7,r2
    13ec:	200d883a 	mov	r6,r4
    13f0:	01600014 	movui	r5,32768
    13f4:	1809883a 	mov	r4,r3
    13f8:	00018880 	call	1888 <readTileData>

        drawTileLine(gpu, tileData, tileLine, xflip, yflip);
    13fc:	e0ff9717 	ldw	r3,-420(fp)
    1400:	e0bf9517 	ldw	r2,-428(fp)
    1404:	d8800015 	stw	r2,0(sp)
    1408:	e1ff9417 	ldw	r7,-432(fp)
    140c:	e1bf9217 	ldw	r6,-440(fp)
    1410:	180b883a 	mov	r5,r3
    1414:	e13ff317 	ldw	r4,-52(fp)
    1418:	0000ff40 	call	ff4 <drawTileLine>
        copySpriteTileLine(spriteLineBuffer, gpu->tileBuffer, sprite.x - 8, paletteNumber);
    141c:	e0bff317 	ldw	r2,-52(fp)
    1420:	10d68f04 	addi	r3,r2,23100
    1424:	e0bff203 	ldbu	r2,-56(fp)
    1428:	10803fcc 	andi	r2,r2,255
    142c:	113ffe04 	addi	r4,r2,-8
    1430:	e17f9303 	ldbu	r5,-436(fp)
    1434:	e0bfa104 	addi	r2,fp,-380
    1438:	280f883a 	mov	r7,r5
    143c:	200d883a 	mov	r6,r4
    1440:	180b883a 	mov	r5,r3
    1444:	1009883a 	mov	r4,r2
    1448:	00014c00 	call	14c0 <copySpriteTileLine>
    144c:	e6fff717 	ldw	sp,-36(fp)

    // cache object to store read tiles from this frame
//    byte cacheTile[100][16];
    SpriteLine spriteLineBuffer[160];

    for (int i = 0; i < 9; i++) {
    1450:	e0bf8f17 	ldw	r2,-452(fp)
    1454:	10800044 	addi	r2,r2,1
    1458:	e0bf8f15 	stw	r2,-452(fp)
    145c:	e0bf8f17 	ldw	r2,-452(fp)
    1460:	10800250 	cmplti	r2,r2,9
    1464:	103f9f1e 	bne	r2,zero,12e4 <__alt_data_end+0xfc0012e4>

        drawTileLine(gpu, tileData, tileLine, xflip, yflip);
        copySpriteTileLine(spriteLineBuffer, gpu->tileBuffer, sprite.x - 8, paletteNumber);
    }

    copySpriteLineToBuffer(gpu, spriteLineBuffer, line);
    1468:	e0bfa104 	addi	r2,fp,-380
    146c:	e1bff517 	ldw	r6,-44(fp)
    1470:	100b883a 	mov	r5,r2
    1474:	e13ff317 	ldw	r4,-52(fp)
    1478:	00015980 	call	1598 <copySpriteLineToBuffer>
    147c:	00000306 	br	148c <drawSprites+0x348>

void copySpriteTileLine(SpriteLine* lineBuffer, byte* tileBuffer, int x, byte palette);
void copySpriteLineToBuffer(GPU* gpu, SpriteLine* spriteLineBuffer, int line);
void drawSprites(GPU* gpu, byte LCDC, int line, byte* lineBuffer) {
    if (((LCDC >> 1) & 0x1) == 0) {
        return;
    1480:	0001883a 	nop
    1484:	00000106 	br	148c <drawSprites+0x348>

        sprites[counter] = s;
        counter++;
    }

    if (counter == 0) return;
    1488:	0001883a 	nop
        drawTileLine(gpu, tileData, tileLine, xflip, yflip);
        copySpriteTileLine(spriteLineBuffer, gpu->tileBuffer, sprite.x - 8, paletteNumber);
    }

    copySpriteLineToBuffer(gpu, spriteLineBuffer, line);
};
    148c:	e6fff804 	addi	sp,fp,-32
    1490:	dfc00917 	ldw	ra,36(sp)
    1494:	df000817 	ldw	fp,32(sp)
    1498:	ddc00717 	ldw	r23,28(sp)
    149c:	dd800617 	ldw	r22,24(sp)
    14a0:	dd400517 	ldw	r21,20(sp)
    14a4:	dd000417 	ldw	r20,16(sp)
    14a8:	dcc00317 	ldw	r19,12(sp)
    14ac:	dc800217 	ldw	r18,8(sp)
    14b0:	dc400117 	ldw	r17,4(sp)
    14b4:	dc000017 	ldw	r16,0(sp)
    14b8:	dec00a04 	addi	sp,sp,40
    14bc:	f800283a 	ret

000014c0 <copySpriteTileLine>:

void copySpriteTileLine(SpriteLine* lineBuffer, byte* tileBuffer, int x, byte palette) {
    14c0:	defffa04 	addi	sp,sp,-24
    14c4:	df000515 	stw	fp,20(sp)
    14c8:	df000504 	addi	fp,sp,20
    14cc:	e13ffc15 	stw	r4,-16(fp)
    14d0:	e17ffd15 	stw	r5,-12(fp)
    14d4:	e1bffe15 	stw	r6,-8(fp)
    14d8:	3805883a 	mov	r2,r7
    14dc:	e0bfff05 	stb	r2,-4(fp)
    // copy tile line to buffer
    for (int k = 0; k < 8; k++, x++) {
    14e0:	e03ffb15 	stw	zero,-20(fp)
    14e4:	00002406 	br	1578 <copySpriteTileLine+0xb8>
        if (x < 0 || x >= 160 || tileBuffer[k] == 0) continue;
    14e8:	e0bffe17 	ldw	r2,-8(fp)
    14ec:	10001b16 	blt	r2,zero,155c <copySpriteTileLine+0x9c>
    14f0:	e0bffe17 	ldw	r2,-8(fp)
    14f4:	10802808 	cmpgei	r2,r2,160
    14f8:	1000181e 	bne	r2,zero,155c <copySpriteTileLine+0x9c>
    14fc:	e0bffb17 	ldw	r2,-20(fp)
    1500:	e0fffd17 	ldw	r3,-12(fp)
    1504:	1885883a 	add	r2,r3,r2
    1508:	10800003 	ldbu	r2,0(r2)
    150c:	10803fcc 	andi	r2,r2,255
    1510:	10001226 	beq	r2,zero,155c <copySpriteTileLine+0x9c>
        lineBuffer[x].color = tileBuffer[k];
    1514:	e0bffe17 	ldw	r2,-8(fp)
    1518:	1085883a 	add	r2,r2,r2
    151c:	1007883a 	mov	r3,r2
    1520:	e0bffc17 	ldw	r2,-16(fp)
    1524:	10c5883a 	add	r2,r2,r3
    1528:	e0fffb17 	ldw	r3,-20(fp)
    152c:	e13ffd17 	ldw	r4,-12(fp)
    1530:	20c7883a 	add	r3,r4,r3
    1534:	18c00003 	ldbu	r3,0(r3)
    1538:	10c00005 	stb	r3,0(r2)
    	lineBuffer[x].palette = palette;
    153c:	e0bffe17 	ldw	r2,-8(fp)
    1540:	1085883a 	add	r2,r2,r2
    1544:	1007883a 	mov	r3,r2
    1548:	e0bffc17 	ldw	r2,-16(fp)
    154c:	10c5883a 	add	r2,r2,r3
    1550:	e0ffff03 	ldbu	r3,-4(fp)
    1554:	10c00045 	stb	r3,1(r2)
    1558:	00000106 	br	1560 <copySpriteTileLine+0xa0>
};

void copySpriteTileLine(SpriteLine* lineBuffer, byte* tileBuffer, int x, byte palette) {
    // copy tile line to buffer
    for (int k = 0; k < 8; k++, x++) {
        if (x < 0 || x >= 160 || tileBuffer[k] == 0) continue;
    155c:	0001883a 	nop
    copySpriteLineToBuffer(gpu, spriteLineBuffer, line);
};

void copySpriteTileLine(SpriteLine* lineBuffer, byte* tileBuffer, int x, byte palette) {
    // copy tile line to buffer
    for (int k = 0; k < 8; k++, x++) {
    1560:	e0bffb17 	ldw	r2,-20(fp)
    1564:	10800044 	addi	r2,r2,1
    1568:	e0bffb15 	stw	r2,-20(fp)
    156c:	e0bffe17 	ldw	r2,-8(fp)
    1570:	10800044 	addi	r2,r2,1
    1574:	e0bffe15 	stw	r2,-8(fp)
    1578:	e0bffb17 	ldw	r2,-20(fp)
    157c:	10800210 	cmplti	r2,r2,8
    1580:	103fd91e 	bne	r2,zero,14e8 <__alt_data_end+0xfc0014e8>
        if (x < 0 || x >= 160 || tileBuffer[k] == 0) continue;
        lineBuffer[x].color = tileBuffer[k];
    	lineBuffer[x].palette = palette;
    }
}
    1584:	0001883a 	nop
    1588:	e037883a 	mov	sp,fp
    158c:	df000017 	ldw	fp,0(sp)
    1590:	dec00104 	addi	sp,sp,4
    1594:	f800283a 	ret

00001598 <copySpriteLineToBuffer>:
void copySpriteLineToBuffer(GPU* gpu, SpriteLine* spriteLineBuffer, int line) {
    1598:	defff704 	addi	sp,sp,-36
    159c:	dfc00815 	stw	ra,32(sp)
    15a0:	df000715 	stw	fp,28(sp)
    15a4:	df000704 	addi	fp,sp,28
    15a8:	e13ffd15 	stw	r4,-12(fp)
    15ac:	e17ffe15 	stw	r5,-8(fp)
    15b0:	e1bfff15 	stw	r6,-4(fp)
    byte spritePalettes[2][4];
    getPalette(readData(gpu->OBP0), spritePalettes[0]);
    15b4:	e0bffd17 	ldw	r2,-12(fp)
    15b8:	1080038b 	ldhu	r2,14(r2)
    15bc:	10bfffcc 	andi	r2,r2,65535
    15c0:	1009883a 	mov	r4,r2
    15c4:	000026c0 	call	26c <readData>
    15c8:	10803fcc 	andi	r2,r2,255
    15cc:	e0fffa84 	addi	r3,fp,-22
    15d0:	180b883a 	mov	r5,r3
    15d4:	1009883a 	mov	r4,r2
    15d8:	00020780 	call	2078 <getPalette>
    getPalette(readData(gpu->OBP1), spritePalettes[1]);
    15dc:	e0bffd17 	ldw	r2,-12(fp)
    15e0:	1080040b 	ldhu	r2,16(r2)
    15e4:	10bfffcc 	andi	r2,r2,65535
    15e8:	1009883a 	mov	r4,r2
    15ec:	000026c0 	call	26c <readData>
    15f0:	10c03fcc 	andi	r3,r2,255
    15f4:	e0bffa84 	addi	r2,fp,-22
    15f8:	10800104 	addi	r2,r2,4
    15fc:	100b883a 	mov	r5,r2
    1600:	1809883a 	mov	r4,r3
    1604:	00020780 	call	2078 <getPalette>

    for (int x = 0; x < 160; x++) {
    1608:	e03ff915 	stw	zero,-28(fp)
    160c:	00002406 	br	16a0 <copySpriteLineToBuffer+0x108>
//        if (spriteLineBuffer[x] == 0) continue; TODO: DOn;t know how to implement Maybe its fine
        byte color = spriteLineBuffer[x].color;
    1610:	e0bff917 	ldw	r2,-28(fp)
    1614:	1085883a 	add	r2,r2,r2
    1618:	1007883a 	mov	r3,r2
    161c:	e0bffe17 	ldw	r2,-8(fp)
    1620:	10c5883a 	add	r2,r2,r3
    1624:	10800003 	ldbu	r2,0(r2)
    1628:	e0bffa05 	stb	r2,-24(fp)
        if (color == 0) continue;
    162c:	e0bffa03 	ldbu	r2,-24(fp)
    1630:	10001726 	beq	r2,zero,1690 <copySpriteLineToBuffer+0xf8>
        byte paletteNumber = spriteLineBuffer[x].palette;
    1634:	e0bff917 	ldw	r2,-28(fp)
    1638:	1085883a 	add	r2,r2,r2
    163c:	1007883a 	mov	r3,r2
    1640:	e0bffe17 	ldw	r2,-8(fp)
    1644:	10c5883a 	add	r2,r2,r3
    1648:	10800043 	ldbu	r2,1(r2)
    164c:	e0bffa45 	stb	r2,-23(fp)
        drawPixel(gpu, x, line, spritePalettes[paletteNumber][color]);
    1650:	e0bffa43 	ldbu	r2,-23(fp)
    1654:	e0fffa03 	ldbu	r3,-24(fp)
    1658:	1085883a 	add	r2,r2,r2
    165c:	1085883a 	add	r2,r2,r2
    1660:	e13ff904 	addi	r4,fp,-28
    1664:	2085883a 	add	r2,r4,r2
    1668:	10c5883a 	add	r2,r2,r3
    166c:	10800184 	addi	r2,r2,6
    1670:	10800003 	ldbu	r2,0(r2)
    1674:	10803fcc 	andi	r2,r2,255
    1678:	100f883a 	mov	r7,r2
    167c:	e1bfff17 	ldw	r6,-4(fp)
    1680:	e17ff917 	ldw	r5,-28(fp)
    1684:	e13ffd17 	ldw	r4,-12(fp)
    1688:	0001fb80 	call	1fb8 <drawPixel>
    168c:	00000106 	br	1694 <copySpriteLineToBuffer+0xfc>
    getPalette(readData(gpu->OBP1), spritePalettes[1]);

    for (int x = 0; x < 160; x++) {
//        if (spriteLineBuffer[x] == 0) continue; TODO: DOn;t know how to implement Maybe its fine
        byte color = spriteLineBuffer[x].color;
        if (color == 0) continue;
    1690:	0001883a 	nop
void copySpriteLineToBuffer(GPU* gpu, SpriteLine* spriteLineBuffer, int line) {
    byte spritePalettes[2][4];
    getPalette(readData(gpu->OBP0), spritePalettes[0]);
    getPalette(readData(gpu->OBP1), spritePalettes[1]);

    for (int x = 0; x < 160; x++) {
    1694:	e0bff917 	ldw	r2,-28(fp)
    1698:	10800044 	addi	r2,r2,1
    169c:	e0bff915 	stw	r2,-28(fp)
    16a0:	e0bff917 	ldw	r2,-28(fp)
    16a4:	10802810 	cmplti	r2,r2,160
    16a8:	103fd91e 	bne	r2,zero,1610 <__alt_data_end+0xfc001610>
        byte color = spriteLineBuffer[x].color;
        if (color == 0) continue;
        byte paletteNumber = spriteLineBuffer[x].palette;
        drawPixel(gpu, x, line, spritePalettes[paletteNumber][color]);
    }
}
    16ac:	0001883a 	nop
    16b0:	e037883a 	mov	sp,fp
    16b4:	dfc00117 	ldw	ra,4(sp)
    16b8:	df000017 	ldw	fp,0(sp)
    16bc:	dec00204 	addi	sp,sp,8
    16c0:	f800283a 	ret

000016c4 <drawTile>:

void drawTile(byte* tileData, int x, int y, byte* buffer, int bufferWidth, int xflip, int yflip, int spriteMode) {
    16c4:	defff004 	addi	sp,sp,-64
    16c8:	dfc00f15 	stw	ra,60(sp)
    16cc:	df000e15 	stw	fp,56(sp)
    16d0:	dc000d15 	stw	r16,52(sp)
    16d4:	df000e04 	addi	fp,sp,56
    16d8:	e13ffb15 	stw	r4,-20(fp)
    16dc:	e17ffc15 	stw	r5,-16(fp)
    16e0:	e1bffd15 	stw	r6,-12(fp)
    16e4:	e1fffe15 	stw	r7,-8(fp)
    xflip = xflip | 0;
    yflip = yflip | 0;
    spriteMode = spriteMode | 0;
    int byteIndex = 0;
    16e8:	e03ff215 	stw	zero,-56(fp)
    for (int line = 0; line < 8; line++) {
    16ec:	e03ff315 	stw	zero,-52(fp)
    16f0:	00005b06 	br	1860 <drawTile+0x19c>
        int l = yflip == 1 ? 7 - line : line;
    16f4:	e0800417 	ldw	r2,16(fp)
    16f8:	10800058 	cmpnei	r2,r2,1
    16fc:	1000041e 	bne	r2,zero,1710 <drawTile+0x4c>
    1700:	00c001c4 	movi	r3,7
    1704:	e0bff317 	ldw	r2,-52(fp)
    1708:	1885c83a 	sub	r2,r3,r2
    170c:	00000106 	br	1714 <drawTile+0x50>
    1710:	e0bff317 	ldw	r2,-52(fp)
    1714:	e0bff515 	stw	r2,-44(fp)
        byte b1 = tileData[byteIndex++];
    1718:	e0bff217 	ldw	r2,-56(fp)
    171c:	10c00044 	addi	r3,r2,1
    1720:	e0fff215 	stw	r3,-56(fp)
    1724:	1007883a 	mov	r3,r2
    1728:	e0bffb17 	ldw	r2,-20(fp)
    172c:	10c5883a 	add	r2,r2,r3
    1730:	10800003 	ldbu	r2,0(r2)
    1734:	e0bff605 	stb	r2,-40(fp)
        byte b2 = tileData[byteIndex++];
    1738:	e0bff217 	ldw	r2,-56(fp)
    173c:	10c00044 	addi	r3,r2,1
    1740:	e0fff215 	stw	r3,-56(fp)
    1744:	1007883a 	mov	r3,r2
    1748:	e0bffb17 	ldw	r2,-20(fp)
    174c:	10c5883a 	add	r2,r2,r3
    1750:	10800003 	ldbu	r2,0(r2)
    1754:	e0bff645 	stb	r2,-39(fp)

        for (int pixel = 0; pixel < 8; pixel++) {
    1758:	e03ff415 	stw	zero,-48(fp)
    175c:	00003a06 	br	1848 <drawTile+0x184>
            int mask = (1 << (7-pixel));
    1760:	00c001c4 	movi	r3,7
    1764:	e0bff417 	ldw	r2,-48(fp)
    1768:	1885c83a 	sub	r2,r3,r2
    176c:	00c00044 	movi	r3,1
    1770:	1884983a 	sll	r2,r3,r2
    1774:	e0bff715 	stw	r2,-36(fp)
            byte colorValue = ((b1 & mask) >> (7-pixel)) + ((b2 & mask) >> (7-pixel))*2;
    1778:	e0fff603 	ldbu	r3,-40(fp)
    177c:	e0bff717 	ldw	r2,-36(fp)
    1780:	1886703a 	and	r3,r3,r2
    1784:	010001c4 	movi	r4,7
    1788:	e0bff417 	ldw	r2,-48(fp)
    178c:	2085c83a 	sub	r2,r4,r2
    1790:	1885d83a 	sra	r2,r3,r2
    1794:	100b883a 	mov	r5,r2
    1798:	e0fff643 	ldbu	r3,-39(fp)
    179c:	e0bff717 	ldw	r2,-36(fp)
    17a0:	1886703a 	and	r3,r3,r2
    17a4:	010001c4 	movi	r4,7
    17a8:	e0bff417 	ldw	r2,-48(fp)
    17ac:	2085c83a 	sub	r2,r4,r2
    17b0:	1885d83a 	sra	r2,r3,r2
    17b4:	1085883a 	add	r2,r2,r2
    17b8:	2885883a 	add	r2,r5,r2
    17bc:	e0bff805 	stb	r2,-32(fp)
            if (spriteMode && colorValue == 0) continue;
    17c0:	e0800517 	ldw	r2,20(fp)
    17c4:	10000226 	beq	r2,zero,17d0 <drawTile+0x10c>
    17c8:	e0bff803 	ldbu	r2,-32(fp)
    17cc:	10001a26 	beq	r2,zero,1838 <drawTile+0x174>
            int p = xflip == 1 ? 7 - pixel : pixel;
    17d0:	e0800317 	ldw	r2,12(fp)
    17d4:	10800058 	cmpnei	r2,r2,1
    17d8:	1000041e 	bne	r2,zero,17ec <drawTile+0x128>
    17dc:	00c001c4 	movi	r3,7
    17e0:	e0bff417 	ldw	r2,-48(fp)
    17e4:	1885c83a 	sub	r2,r3,r2
    17e8:	00000106 	br	17f0 <drawTile+0x12c>
    17ec:	e0bff417 	ldw	r2,-48(fp)
    17f0:	e0bff915 	stw	r2,-28(fp)
            int bufferIndex = (x + p) + (y + l) * bufferWidth;
    17f4:	e0fffc17 	ldw	r3,-16(fp)
    17f8:	e0bff917 	ldw	r2,-28(fp)
    17fc:	18a1883a 	add	r16,r3,r2
    1800:	e0fffd17 	ldw	r3,-12(fp)
    1804:	e0bff517 	ldw	r2,-44(fp)
    1808:	1885883a 	add	r2,r3,r2
    180c:	e1400217 	ldw	r5,8(fp)
    1810:	1009883a 	mov	r4,r2
    1814:	000cefc0 	call	cefc <__mulsi3>
    1818:	8085883a 	add	r2,r16,r2
    181c:	e0bffa15 	stw	r2,-24(fp)
            buffer[bufferIndex] = colorValue;
    1820:	e0bffa17 	ldw	r2,-24(fp)
    1824:	e0fffe17 	ldw	r3,-8(fp)
    1828:	1885883a 	add	r2,r3,r2
    182c:	e0fff803 	ldbu	r3,-32(fp)
    1830:	10c00005 	stb	r3,0(r2)
    1834:	00000106 	br	183c <drawTile+0x178>
        byte b2 = tileData[byteIndex++];

        for (int pixel = 0; pixel < 8; pixel++) {
            int mask = (1 << (7-pixel));
            byte colorValue = ((b1 & mask) >> (7-pixel)) + ((b2 & mask) >> (7-pixel))*2;
            if (spriteMode && colorValue == 0) continue;
    1838:	0001883a 	nop
    for (int line = 0; line < 8; line++) {
        int l = yflip == 1 ? 7 - line : line;
        byte b1 = tileData[byteIndex++];
        byte b2 = tileData[byteIndex++];

        for (int pixel = 0; pixel < 8; pixel++) {
    183c:	e0bff417 	ldw	r2,-48(fp)
    1840:	10800044 	addi	r2,r2,1
    1844:	e0bff415 	stw	r2,-48(fp)
    1848:	e0bff417 	ldw	r2,-48(fp)
    184c:	10800210 	cmplti	r2,r2,8
    1850:	103fc31e 	bne	r2,zero,1760 <__alt_data_end+0xfc001760>
void drawTile(byte* tileData, int x, int y, byte* buffer, int bufferWidth, int xflip, int yflip, int spriteMode) {
    xflip = xflip | 0;
    yflip = yflip | 0;
    spriteMode = spriteMode | 0;
    int byteIndex = 0;
    for (int line = 0; line < 8; line++) {
    1854:	e0bff317 	ldw	r2,-52(fp)
    1858:	10800044 	addi	r2,r2,1
    185c:	e0bff315 	stw	r2,-52(fp)
    1860:	e0bff317 	ldw	r2,-52(fp)
    1864:	10800210 	cmplti	r2,r2,8
    1868:	103fa21e 	bne	r2,zero,16f4 <__alt_data_end+0xfc0016f4>
            int p = xflip == 1 ? 7 - pixel : pixel;
            int bufferIndex = (x + p) + (y + l) * bufferWidth;
            buffer[bufferIndex] = colorValue;
        }
    }
}
    186c:	0001883a 	nop
    1870:	e6ffff04 	addi	sp,fp,-4
    1874:	dfc00217 	ldw	ra,8(sp)
    1878:	df000117 	ldw	fp,4(sp)
    187c:	dc000017 	ldw	r16,0(sp)
    1880:	dec00304 	addi	sp,sp,12
    1884:	f800283a 	ret

00001888 <readTileData>:

void readTileData(int tileIndex, word dataStart, int tileSize, byte* tileData) {
    1888:	defff604 	addi	sp,sp,-40
    188c:	dfc00915 	stw	ra,36(sp)
    1890:	df000815 	stw	fp,32(sp)
    1894:	dc000715 	stw	r16,28(sp)
    1898:	df000804 	addi	fp,sp,32
    189c:	e13ffb15 	stw	r4,-20(fp)
    18a0:	2805883a 	mov	r2,r5
    18a4:	e1bffd15 	stw	r6,-12(fp)
    18a8:	e1fffe15 	stw	r7,-8(fp)
    18ac:	e0bffc0d 	sth	r2,-16(fp)
    word tileAddressStart = dataStart + (tileIndex * 0x10);
    18b0:	e0bffb17 	ldw	r2,-20(fp)
    18b4:	1004913a 	slli	r2,r2,4
    18b8:	1007883a 	mov	r3,r2
    18bc:	e0bffc0b 	ldhu	r2,-16(fp)
    18c0:	1885883a 	add	r2,r3,r2
    18c4:	e0bffa0d 	sth	r2,-24(fp)
    int counter = 0;
    18c8:	e03ff815 	stw	zero,-32(fp)
    for (int i = tileAddressStart; i < tileAddressStart + tileSize; i++) {
    18cc:	e0bffa0b 	ldhu	r2,-24(fp)
    18d0:	e0bff915 	stw	r2,-28(fp)
    18d4:	00000e06 	br	1910 <readTileData+0x88>
        tileData[counter] = readData(i);
    18d8:	e0bff817 	ldw	r2,-32(fp)
    18dc:	e0fffe17 	ldw	r3,-8(fp)
    18e0:	18a1883a 	add	r16,r3,r2
    18e4:	e0bff917 	ldw	r2,-28(fp)
    18e8:	10bfffcc 	andi	r2,r2,65535
    18ec:	1009883a 	mov	r4,r2
    18f0:	000026c0 	call	26c <readData>
    18f4:	80800005 	stb	r2,0(r16)
        counter++;
    18f8:	e0bff817 	ldw	r2,-32(fp)
    18fc:	10800044 	addi	r2,r2,1
    1900:	e0bff815 	stw	r2,-32(fp)
}

void readTileData(int tileIndex, word dataStart, int tileSize, byte* tileData) {
    word tileAddressStart = dataStart + (tileIndex * 0x10);
    int counter = 0;
    for (int i = tileAddressStart; i < tileAddressStart + tileSize; i++) {
    1904:	e0bff917 	ldw	r2,-28(fp)
    1908:	10800044 	addi	r2,r2,1
    190c:	e0bff915 	stw	r2,-28(fp)
    1910:	e0fffa0b 	ldhu	r3,-24(fp)
    1914:	e0bffd17 	ldw	r2,-12(fp)
    1918:	1885883a 	add	r2,r3,r2
    191c:	e0fff917 	ldw	r3,-28(fp)
    1920:	18bfed16 	blt	r3,r2,18d8 <__alt_data_end+0xfc0018d8>
        tileData[counter] = readData(i);
        counter++;
    }

}
    1924:	0001883a 	nop
    1928:	e6ffff04 	addi	sp,fp,-4
    192c:	dfc00217 	ldw	ra,8(sp)
    1930:	df000117 	ldw	fp,4(sp)
    1934:	dc000017 	ldw	r16,0(sp)
    1938:	dec00304 	addi	sp,sp,12
    193c:	f800283a 	ret

00001940 <drawWindow>:

void drawWindow(GPU* gpu, byte LCDC) {
    1940:	defffe04 	addi	sp,sp,-8
    1944:	dfc00115 	stw	ra,4(sp)
    1948:	df000015 	stw	fp,0(sp)
    194c:	d839883a 	mov	fp,sp
    1950:	023ffff4 	movhi	r8,65535
    1954:	423fec04 	addi	r8,r8,-80
    1958:	da37883a 	add	sp,sp,r8
    195c:	00800074 	movhi	r2,1
    1960:	10800e04 	addi	r2,r2,56
    1964:	00fffff4 	movhi	r3,65535
    1968:	18fff004 	addi	r3,r3,-64
    196c:	1f07883a 	add	r3,r3,fp
    1970:	1885883a 	add	r2,r3,r2
    1974:	11000015 	stw	r4,0(r2)
    1978:	2807883a 	mov	r3,r5
    197c:	00800074 	movhi	r2,1
    1980:	10800f04 	addi	r2,r2,60
    1984:	013ffff4 	movhi	r4,65535
    1988:	213ff004 	addi	r4,r4,-64
    198c:	2709883a 	add	r4,r4,fp
    1990:	2085883a 	add	r2,r4,r2
    1994:	10c00005 	stb	r3,0(r2)
    if (((LCDC >> 5) & 0x1) == 0) {
    1998:	00800074 	movhi	r2,1
    199c:	10800f04 	addi	r2,r2,60
    19a0:	017ffff4 	movhi	r5,65535
    19a4:	297ff004 	addi	r5,r5,-64
    19a8:	2f0b883a 	add	r5,r5,fp
    19ac:	2885883a 	add	r2,r5,r2
    19b0:	10800003 	ldbu	r2,0(r2)
    19b4:	1004d17a 	srli	r2,r2,5
    19b8:	10803fcc 	andi	r2,r2,255
    19bc:	1080004c 	andi	r2,r2,1
    19c0:	10017726 	beq	r2,zero,1fa0 <drawWindow+0x660>
        return;
    }

    byte buffer[65536];
    word mapStart = (((LCDC >> 6) & 0x1) == 1) ? gpu->START_1 : gpu->START_0;
    19c4:	00800074 	movhi	r2,1
    19c8:	10800f04 	addi	r2,r2,60
    19cc:	01bffff4 	movhi	r6,65535
    19d0:	31bff004 	addi	r6,r6,-64
    19d4:	370d883a 	add	r6,r6,fp
    19d8:	3085883a 	add	r2,r6,r2
    19dc:	10800003 	ldbu	r2,0(r2)
    19e0:	1004d1ba 	srli	r2,r2,6
    19e4:	10803fcc 	andi	r2,r2,255
    19e8:	1080004c 	andi	r2,r2,1
    19ec:	10000926 	beq	r2,zero,1a14 <drawWindow+0xd4>
    19f0:	00800074 	movhi	r2,1
    19f4:	10800e04 	addi	r2,r2,56
    19f8:	01fffff4 	movhi	r7,65535
    19fc:	39fff004 	addi	r7,r7,-64
    1a00:	3f0f883a 	add	r7,r7,fp
    1a04:	3885883a 	add	r2,r7,r2
    1a08:	10800017 	ldw	r2,0(r2)
    1a0c:	1080098b 	ldhu	r2,38(r2)
    1a10:	00000806 	br	1a34 <drawWindow+0xf4>
    1a14:	00800074 	movhi	r2,1
    1a18:	10800e04 	addi	r2,r2,56
    1a1c:	00fffff4 	movhi	r3,65535
    1a20:	18fff004 	addi	r3,r3,-64
    1a24:	1f07883a 	add	r3,r3,fp
    1a28:	1885883a 	add	r2,r3,r2
    1a2c:	10800017 	ldw	r2,0(r2)
    1a30:	1080090b 	ldhu	r2,36(r2)
    1a34:	013ffff4 	movhi	r4,65535
    1a38:	213ff604 	addi	r4,r4,-40
    1a3c:	2709883a 	add	r4,r4,fp
    1a40:	2080000d 	sth	r2,0(r4)

    word dataStart;
    bool signedIndex = false;
    1a44:	017ffff4 	movhi	r5,65535
    1a48:	297ff104 	addi	r5,r5,-60
    1a4c:	2f0b883a 	add	r5,r5,fp
    1a50:	28000015 	stw	zero,0(r5)
    if (((LCDC >> 4) & 0x1) == 1) {
    1a54:	00800074 	movhi	r2,1
    1a58:	10800f04 	addi	r2,r2,60
    1a5c:	01bffff4 	movhi	r6,65535
    1a60:	31bff004 	addi	r6,r6,-64
    1a64:	370d883a 	add	r6,r6,fp
    1a68:	3085883a 	add	r2,r6,r2
    1a6c:	10800003 	ldbu	r2,0(r2)
    1a70:	1004d13a 	srli	r2,r2,4
    1a74:	10803fcc 	andi	r2,r2,255
    1a78:	1080004c 	andi	r2,r2,1
    1a7c:	10000626 	beq	r2,zero,1a98 <drawWindow+0x158>
        dataStart = 0x8000;
    1a80:	00a00004 	movi	r2,-32768
    1a84:	01fffff4 	movhi	r7,65535
    1a88:	39fff004 	addi	r7,r7,-64
    1a8c:	3f0f883a 	add	r7,r7,fp
    1a90:	3880000d 	sth	r2,0(r7)
    1a94:	00000a06 	br	1ac0 <drawWindow+0x180>
    } else {
        dataStart = 0x8800;
    1a98:	00a20004 	movi	r2,-30720
    1a9c:	00fffff4 	movhi	r3,65535
    1aa0:	18fff004 	addi	r3,r3,-64
    1aa4:	1f07883a 	add	r3,r3,fp
    1aa8:	1880000d 	sth	r2,0(r3)
        signedIndex = true;
    1aac:	00800044 	movi	r2,1
    1ab0:	013ffff4 	movhi	r4,65535
    1ab4:	213ff104 	addi	r4,r4,-60
    1ab8:	2709883a 	add	r4,r4,fp
    1abc:	20800015 	stw	r2,0(r4)
    }

    // browse Window tilemap
    for (int i = 0; i < gpu->LENGTH; i++) {
    1ac0:	017ffff4 	movhi	r5,65535
    1ac4:	297ff204 	addi	r5,r5,-56
    1ac8:	2f0b883a 	add	r5,r5,fp
    1acc:	28000015 	stw	zero,0(r5)
    1ad0:	00007f06 	br	1cd0 <drawWindow+0x390>
        byte tileIndex = readData(i + mapStart);
    1ad4:	01bffff4 	movhi	r6,65535
    1ad8:	31bff204 	addi	r6,r6,-56
    1adc:	370d883a 	add	r6,r6,fp
    1ae0:	30800017 	ldw	r2,0(r6)
    1ae4:	1007883a 	mov	r3,r2
    1ae8:	01fffff4 	movhi	r7,65535
    1aec:	39fff604 	addi	r7,r7,-40
    1af0:	3f0f883a 	add	r7,r7,fp
    1af4:	3880000b 	ldhu	r2,0(r7)
    1af8:	1885883a 	add	r2,r3,r2
    1afc:	10bfffcc 	andi	r2,r2,65535
    1b00:	1009883a 	mov	r4,r2
    1b04:	000026c0 	call	26c <readData>
    1b08:	00fffff4 	movhi	r3,65535
    1b0c:	18fff304 	addi	r3,r3,-52
    1b10:	1f07883a 	add	r3,r3,fp
    1b14:	18800005 	stb	r2,0(r3)

        if (signedIndex) {
    1b18:	013ffff4 	movhi	r4,65535
    1b1c:	213ff104 	addi	r4,r4,-60
    1b20:	2709883a 	add	r4,r4,fp
    1b24:	20800017 	ldw	r2,0(r4)
    1b28:	10000b26 	beq	r2,zero,1b58 <drawWindow+0x218>
            tileIndex = getSignedValue(tileIndex) + 128;
    1b2c:	017ffff4 	movhi	r5,65535
    1b30:	297ff304 	addi	r5,r5,-52
    1b34:	2f0b883a 	add	r5,r5,fp
    1b38:	28800003 	ldbu	r2,0(r5)
    1b3c:	1009883a 	mov	r4,r2
    1b40:	000327c0 	call	327c <getSignedValue>
    1b44:	10bfe004 	addi	r2,r2,-128
    1b48:	01bffff4 	movhi	r6,65535
    1b4c:	31bff304 	addi	r6,r6,-52
    1b50:	370d883a 	add	r6,r6,fp
    1b54:	30800005 	stb	r2,0(r6)
        }
        byte tileData[16];
        readTileData(tileIndex, dataStart, 16, tileData);
    1b58:	01fffff4 	movhi	r7,65535
    1b5c:	39fff304 	addi	r7,r7,-52
    1b60:	3f0f883a 	add	r7,r7,fp
    1b64:	38c00003 	ldbu	r3,0(r7)
    1b68:	00bffff4 	movhi	r2,65535
    1b6c:	10bff004 	addi	r2,r2,-64
    1b70:	1705883a 	add	r2,r2,fp
    1b74:	1100000b 	ldhu	r4,0(r2)
    1b78:	00800074 	movhi	r2,1
    1b7c:	108009c4 	addi	r2,r2,39
    1b80:	017ffff4 	movhi	r5,65535
    1b84:	297ff004 	addi	r5,r5,-64
    1b88:	2f0b883a 	add	r5,r5,fp
    1b8c:	2885883a 	add	r2,r5,r2
    1b90:	100f883a 	mov	r7,r2
    1b94:	01800404 	movi	r6,16
    1b98:	200b883a 	mov	r5,r4
    1b9c:	1809883a 	mov	r4,r3
    1ba0:	00018880 	call	1888 <readTileData>
        int x = i % gpu->WIDTH;
    1ba4:	00800074 	movhi	r2,1
    1ba8:	10800e04 	addi	r2,r2,56
    1bac:	01bffff4 	movhi	r6,65535
    1bb0:	31bff004 	addi	r6,r6,-64
    1bb4:	370d883a 	add	r6,r6,fp
    1bb8:	3085883a 	add	r2,r6,r2
    1bbc:	10800017 	ldw	r2,0(r2)
    1bc0:	10c00817 	ldw	r3,32(r2)
    1bc4:	01fffff4 	movhi	r7,65535
    1bc8:	39fff204 	addi	r7,r7,-56
    1bcc:	3f0f883a 	add	r7,r7,fp
    1bd0:	38800017 	ldw	r2,0(r7)
    1bd4:	180b883a 	mov	r5,r3
    1bd8:	1009883a 	mov	r4,r2
    1bdc:	000cdcc0 	call	cdcc <__modsi3>
    1be0:	00fffff4 	movhi	r3,65535
    1be4:	18fff704 	addi	r3,r3,-36
    1be8:	1f07883a 	add	r3,r3,fp
    1bec:	18800015 	stw	r2,0(r3)
        int y = (i / gpu->WIDTH) | 0;
    1bf0:	00800074 	movhi	r2,1
    1bf4:	10800e04 	addi	r2,r2,56
    1bf8:	013ffff4 	movhi	r4,65535
    1bfc:	213ff004 	addi	r4,r4,-64
    1c00:	2709883a 	add	r4,r4,fp
    1c04:	2085883a 	add	r2,r4,r2
    1c08:	10800017 	ldw	r2,0(r2)
    1c0c:	10800817 	ldw	r2,32(r2)
    1c10:	100b883a 	mov	r5,r2
    1c14:	01bffff4 	movhi	r6,65535
    1c18:	31bff204 	addi	r6,r6,-56
    1c1c:	370d883a 	add	r6,r6,fp
    1c20:	31000017 	ldw	r4,0(r6)
    1c24:	000cd480 	call	cd48 <__divsi3>
    1c28:	01fffff4 	movhi	r7,65535
    1c2c:	39fff804 	addi	r7,r7,-32
    1c30:	3f0f883a 	add	r7,r7,fp
    1c34:	38800015 	stw	r2,0(r7)
        drawTile(tileData, x * 8, y * 8, buffer, 256, 0, 0, 0);
    1c38:	00fffff4 	movhi	r3,65535
    1c3c:	18fff704 	addi	r3,r3,-36
    1c40:	1f07883a 	add	r3,r3,fp
    1c44:	18800017 	ldw	r2,0(r3)
    1c48:	100890fa 	slli	r4,r2,3
    1c4c:	017ffff4 	movhi	r5,65535
    1c50:	297ff804 	addi	r5,r5,-32
    1c54:	2f0b883a 	add	r5,r5,fp
    1c58:	28800017 	ldw	r2,0(r5)
    1c5c:	100a90fa 	slli	r5,r2,3
    1c60:	01fffff4 	movhi	r7,65535
    1c64:	39fff9c4 	addi	r7,r7,-25
    1c68:	e1cd883a 	add	r6,fp,r7
    1c6c:	00800074 	movhi	r2,1
    1c70:	108009c4 	addi	r2,r2,39
    1c74:	01fffff4 	movhi	r7,65535
    1c78:	39fff004 	addi	r7,r7,-64
    1c7c:	3f0f883a 	add	r7,r7,fp
    1c80:	3887883a 	add	r3,r7,r2
    1c84:	d8000315 	stw	zero,12(sp)
    1c88:	d8000215 	stw	zero,8(sp)
    1c8c:	d8000115 	stw	zero,4(sp)
    1c90:	00804004 	movi	r2,256
    1c94:	d8800015 	stw	r2,0(sp)
    1c98:	300f883a 	mov	r7,r6
    1c9c:	280d883a 	mov	r6,r5
    1ca0:	200b883a 	mov	r5,r4
    1ca4:	1809883a 	mov	r4,r3
    1ca8:	00016c40 	call	16c4 <drawTile>
        dataStart = 0x8800;
        signedIndex = true;
    }

    // browse Window tilemap
    for (int i = 0; i < gpu->LENGTH; i++) {
    1cac:	00fffff4 	movhi	r3,65535
    1cb0:	18fff204 	addi	r3,r3,-56
    1cb4:	1f07883a 	add	r3,r3,fp
    1cb8:	18800017 	ldw	r2,0(r3)
    1cbc:	10800044 	addi	r2,r2,1
    1cc0:	013ffff4 	movhi	r4,65535
    1cc4:	213ff204 	addi	r4,r4,-56
    1cc8:	2709883a 	add	r4,r4,fp
    1ccc:	20800015 	stw	r2,0(r4)
    1cd0:	00800074 	movhi	r2,1
    1cd4:	10800e04 	addi	r2,r2,56
    1cd8:	017ffff4 	movhi	r5,65535
    1cdc:	297ff004 	addi	r5,r5,-64
    1ce0:	2f0b883a 	add	r5,r5,fp
    1ce4:	2885883a 	add	r2,r5,r2
    1ce8:	10800017 	ldw	r2,0(r2)
    1cec:	10800a0b 	ldhu	r2,40(r2)
    1cf0:	10bfffcc 	andi	r2,r2,65535
    1cf4:	01bffff4 	movhi	r6,65535
    1cf8:	31bff204 	addi	r6,r6,-56
    1cfc:	370d883a 	add	r6,r6,fp
    1d00:	30c00017 	ldw	r3,0(r6)
    1d04:	18bf7316 	blt	r3,r2,1ad4 <__alt_data_end+0xfc001ad4>
        int x = i % gpu->WIDTH;
        int y = (i / gpu->WIDTH) | 0;
        drawTile(tileData, x * 8, y * 8, buffer, 256, 0, 0, 0);
    }

    byte wx = readData(gpu->WX) - 7;
    1d08:	00800074 	movhi	r2,1
    1d0c:	10800e04 	addi	r2,r2,56
    1d10:	01fffff4 	movhi	r7,65535
    1d14:	39fff004 	addi	r7,r7,-64
    1d18:	3f0f883a 	add	r7,r7,fp
    1d1c:	3885883a 	add	r2,r7,r2
    1d20:	10800017 	ldw	r2,0(r2)
    1d24:	1080050b 	ldhu	r2,20(r2)
    1d28:	10bfffcc 	andi	r2,r2,65535
    1d2c:	1009883a 	mov	r4,r2
    1d30:	000026c0 	call	26c <readData>
    1d34:	10bffe44 	addi	r2,r2,-7
    1d38:	00fffff4 	movhi	r3,65535
    1d3c:	18fff904 	addi	r3,r3,-28
    1d40:	1f07883a 	add	r3,r3,fp
    1d44:	18800005 	stb	r2,0(r3)
    byte wy = readData(gpu->WY);
    1d48:	00800074 	movhi	r2,1
    1d4c:	10800e04 	addi	r2,r2,56
    1d50:	013ffff4 	movhi	r4,65535
    1d54:	213ff004 	addi	r4,r4,-64
    1d58:	2709883a 	add	r4,r4,fp
    1d5c:	2085883a 	add	r2,r4,r2
    1d60:	10800017 	ldw	r2,0(r2)
    1d64:	1080048b 	ldhu	r2,18(r2)
    1d68:	10bfffcc 	andi	r2,r2,65535
    1d6c:	1009883a 	mov	r4,r2
    1d70:	000026c0 	call	26c <readData>
    1d74:	017ffff4 	movhi	r5,65535
    1d78:	297ff944 	addi	r5,r5,-27
    1d7c:	2f0b883a 	add	r5,r5,fp
    1d80:	28800005 	stb	r2,0(r5)
    for (int x = (0 > -wx) ? 0 : -wx; x < (160 < 160 - wx) ? 160 : 160 - wx; x++) {
    1d84:	01bffff4 	movhi	r6,65535
    1d88:	31bff904 	addi	r6,r6,-28
    1d8c:	370d883a 	add	r6,r6,fp
    1d90:	30800003 	ldbu	r2,0(r6)
    1d94:	0085c83a 	sub	r2,zero,r2
    1d98:	1000010e 	bge	r2,zero,1da0 <drawWindow+0x460>
    1d9c:	0005883a 	mov	r2,zero
    1da0:	01fffff4 	movhi	r7,65535
    1da4:	39fff404 	addi	r7,r7,-48
    1da8:	3f0f883a 	add	r7,r7,fp
    1dac:	38800015 	stw	r2,0(r7)
    1db0:	00006706 	br	1f50 <drawWindow+0x610>
        for (int y = (0 > -wy) ? 0 : -wy; y < (144 < 144 - wy) ? 144 : 144 - wy; y++) {
    1db4:	00fffff4 	movhi	r3,65535
    1db8:	18fff944 	addi	r3,r3,-27
    1dbc:	1f07883a 	add	r3,r3,fp
    1dc0:	18800003 	ldbu	r2,0(r3)
    1dc4:	0085c83a 	sub	r2,zero,r2
    1dc8:	1000010e 	bge	r2,zero,1dd0 <drawWindow+0x490>
    1dcc:	0005883a 	mov	r2,zero
    1dd0:	013ffff4 	movhi	r4,65535
    1dd4:	213ff504 	addi	r4,r4,-44
    1dd8:	2709883a 	add	r4,r4,fp
    1ddc:	20800015 	stw	r2,0(r4)
    1de0:	00003f06 	br	1ee0 <drawWindow+0x5a0>
            byte color = buffer[(x & 255) + (y & 255) * 256];
    1de4:	017ffff4 	movhi	r5,65535
    1de8:	297ff404 	addi	r5,r5,-48
    1dec:	2f0b883a 	add	r5,r5,fp
    1df0:	28800017 	ldw	r2,0(r5)
    1df4:	10c03fcc 	andi	r3,r2,255
    1df8:	01bffff4 	movhi	r6,65535
    1dfc:	31bff504 	addi	r6,r6,-44
    1e00:	370d883a 	add	r6,r6,fp
    1e04:	30800017 	ldw	r2,0(r6)
    1e08:	10803fcc 	andi	r2,r2,255
    1e0c:	1004923a 	slli	r2,r2,8
    1e10:	1885883a 	add	r2,r3,r2
    1e14:	01fffff4 	movhi	r7,65535
    1e18:	39fff9c4 	addi	r7,r7,-25
    1e1c:	e1c7883a 	add	r3,fp,r7
    1e20:	1885883a 	add	r2,r3,r2
    1e24:	10800003 	ldbu	r2,0(r2)
    1e28:	00fffff4 	movhi	r3,65535
    1e2c:	18fff984 	addi	r3,r3,-26
    1e30:	1f07883a 	add	r3,r3,fp
    1e34:	18800005 	stb	r2,0(r3)
            drawPixel(gpu, x + wx, y + wy, color);
    1e38:	013ffff4 	movhi	r4,65535
    1e3c:	213ff904 	addi	r4,r4,-28
    1e40:	2709883a 	add	r4,r4,fp
    1e44:	20c00003 	ldbu	r3,0(r4)
    1e48:	017ffff4 	movhi	r5,65535
    1e4c:	297ff404 	addi	r5,r5,-48
    1e50:	2f0b883a 	add	r5,r5,fp
    1e54:	28800017 	ldw	r2,0(r5)
    1e58:	1889883a 	add	r4,r3,r2
    1e5c:	01bffff4 	movhi	r6,65535
    1e60:	31bff944 	addi	r6,r6,-27
    1e64:	370d883a 	add	r6,r6,fp
    1e68:	30c00003 	ldbu	r3,0(r6)
    1e6c:	01fffff4 	movhi	r7,65535
    1e70:	39fff504 	addi	r7,r7,-44
    1e74:	3f0f883a 	add	r7,r7,fp
    1e78:	38800017 	ldw	r2,0(r7)
    1e7c:	1887883a 	add	r3,r3,r2
    1e80:	00bffff4 	movhi	r2,65535
    1e84:	10bff984 	addi	r2,r2,-26
    1e88:	1705883a 	add	r2,r2,fp
    1e8c:	11400003 	ldbu	r5,0(r2)
    1e90:	00800074 	movhi	r2,1
    1e94:	10800e04 	addi	r2,r2,56
    1e98:	01bffff4 	movhi	r6,65535
    1e9c:	31bff004 	addi	r6,r6,-64
    1ea0:	370d883a 	add	r6,r6,fp
    1ea4:	3085883a 	add	r2,r6,r2
    1ea8:	280f883a 	mov	r7,r5
    1eac:	180d883a 	mov	r6,r3
    1eb0:	200b883a 	mov	r5,r4
    1eb4:	11000017 	ldw	r4,0(r2)
    1eb8:	0001fb80 	call	1fb8 <drawPixel>
    }

    byte wx = readData(gpu->WX) - 7;
    byte wy = readData(gpu->WY);
    for (int x = (0 > -wx) ? 0 : -wx; x < (160 < 160 - wx) ? 160 : 160 - wx; x++) {
        for (int y = (0 > -wy) ? 0 : -wy; y < (144 < 144 - wy) ? 144 : 144 - wy; y++) {
    1ebc:	01fffff4 	movhi	r7,65535
    1ec0:	39fff504 	addi	r7,r7,-44
    1ec4:	3f0f883a 	add	r7,r7,fp
    1ec8:	38800017 	ldw	r2,0(r7)
    1ecc:	10800044 	addi	r2,r2,1
    1ed0:	00fffff4 	movhi	r3,65535
    1ed4:	18fff504 	addi	r3,r3,-44
    1ed8:	1f07883a 	add	r3,r3,fp
    1edc:	18800015 	stw	r2,0(r3)
    1ee0:	013ffff4 	movhi	r4,65535
    1ee4:	213ff944 	addi	r4,r4,-27
    1ee8:	2709883a 	add	r4,r4,fp
    1eec:	20800003 	ldbu	r2,0(r4)
    1ef0:	00c02404 	movi	r3,144
    1ef4:	1885c83a 	sub	r2,r3,r2
    1ef8:	10802448 	cmpgei	r2,r2,145
    1efc:	10803fcc 	andi	r2,r2,255
    1f00:	017ffff4 	movhi	r5,65535
    1f04:	297ff504 	addi	r5,r5,-44
    1f08:	2f0b883a 	add	r5,r5,fp
    1f0c:	28c00017 	ldw	r3,0(r5)
    1f10:	18bfb416 	blt	r3,r2,1de4 <__alt_data_end+0xfc001de4>
    1f14:	01bffff4 	movhi	r6,65535
    1f18:	31bff944 	addi	r6,r6,-27
    1f1c:	370d883a 	add	r6,r6,fp
    1f20:	30800003 	ldbu	r2,0(r6)
    1f24:	10802418 	cmpnei	r2,r2,144
    1f28:	103fae1e 	bne	r2,zero,1de4 <__alt_data_end+0xfc001de4>
        drawTile(tileData, x * 8, y * 8, buffer, 256, 0, 0, 0);
    }

    byte wx = readData(gpu->WX) - 7;
    byte wy = readData(gpu->WY);
    for (int x = (0 > -wx) ? 0 : -wx; x < (160 < 160 - wx) ? 160 : 160 - wx; x++) {
    1f2c:	01fffff4 	movhi	r7,65535
    1f30:	39fff404 	addi	r7,r7,-48
    1f34:	3f0f883a 	add	r7,r7,fp
    1f38:	38800017 	ldw	r2,0(r7)
    1f3c:	10800044 	addi	r2,r2,1
    1f40:	00fffff4 	movhi	r3,65535
    1f44:	18fff404 	addi	r3,r3,-48
    1f48:	1f07883a 	add	r3,r3,fp
    1f4c:	18800015 	stw	r2,0(r3)
    1f50:	013ffff4 	movhi	r4,65535
    1f54:	213ff904 	addi	r4,r4,-28
    1f58:	2709883a 	add	r4,r4,fp
    1f5c:	20800003 	ldbu	r2,0(r4)
    1f60:	00c02804 	movi	r3,160
    1f64:	1885c83a 	sub	r2,r3,r2
    1f68:	10802848 	cmpgei	r2,r2,161
    1f6c:	10803fcc 	andi	r2,r2,255
    1f70:	017ffff4 	movhi	r5,65535
    1f74:	297ff404 	addi	r5,r5,-48
    1f78:	2f0b883a 	add	r5,r5,fp
    1f7c:	28c00017 	ldw	r3,0(r5)
    1f80:	18bf8c16 	blt	r3,r2,1db4 <__alt_data_end+0xfc001db4>
    1f84:	01bffff4 	movhi	r6,65535
    1f88:	31bff904 	addi	r6,r6,-28
    1f8c:	370d883a 	add	r6,r6,fp
    1f90:	30800003 	ldbu	r2,0(r6)
    1f94:	10802818 	cmpnei	r2,r2,160
    1f98:	103f861e 	bne	r2,zero,1db4 <__alt_data_end+0xfc001db4>
    1f9c:	00000106 	br	1fa4 <drawWindow+0x664>

}

void drawWindow(GPU* gpu, byte LCDC) {
    if (((LCDC >> 5) & 0x1) == 0) {
        return;
    1fa0:	0001883a 	nop
        for (int y = (0 > -wy) ? 0 : -wy; y < (144 < 144 - wy) ? 144 : 144 - wy; y++) {
            byte color = buffer[(x & 255) + (y & 255) * 256];
            drawPixel(gpu, x + wx, y + wy, color);
        }
    }
}
    1fa4:	e037883a 	mov	sp,fp
    1fa8:	dfc00117 	ldw	ra,4(sp)
    1fac:	df000017 	ldw	fp,0(sp)
    1fb0:	dec00204 	addi	sp,sp,8
    1fb4:	f800283a 	ret

00001fb8 <drawPixel>:

void drawPixel(GPU* gpu, int x, int y, byte color) {
    1fb8:	defffa04 	addi	sp,sp,-24
    1fbc:	dfc00515 	stw	ra,20(sp)
    1fc0:	df000415 	stw	fp,16(sp)
    1fc4:	df000404 	addi	fp,sp,16
    1fc8:	e13ffc15 	stw	r4,-16(fp)
    1fcc:	e17ffd15 	stw	r5,-12(fp)
    1fd0:	e1bffe15 	stw	r6,-8(fp)
    1fd4:	3805883a 	mov	r2,r7
    1fd8:	e0bfff05 	stb	r2,-4(fp)
    gpu->buffer[y * 160 + x] = color;
    1fdc:	01402804 	movi	r5,160
    1fe0:	e13ffe17 	ldw	r4,-8(fp)
    1fe4:	000cefc0 	call	cefc <__mulsi3>
    1fe8:	1007883a 	mov	r3,r2
    1fec:	e0bffd17 	ldw	r2,-12(fp)
    1ff0:	1885883a 	add	r2,r3,r2
    1ff4:	e0fffc17 	ldw	r3,-16(fp)
    1ff8:	1885883a 	add	r2,r3,r2
    1ffc:	10800f04 	addi	r2,r2,60
    2000:	e0ffff03 	ldbu	r3,-4(fp)
    2004:	10c00005 	stb	r3,0(r2)
}
    2008:	0001883a 	nop
    200c:	e037883a 	mov	sp,fp
    2010:	dfc00117 	ldw	ra,4(sp)
    2014:	df000017 	ldw	fp,0(sp)
    2018:	dec00204 	addi	sp,sp,8
    201c:	f800283a 	ret

00002020 <getPixel>:

byte getPixel(GPU* gpu, int x, int y) {
    2020:	defffb04 	addi	sp,sp,-20
    2024:	dfc00415 	stw	ra,16(sp)
    2028:	df000315 	stw	fp,12(sp)
    202c:	df000304 	addi	fp,sp,12
    2030:	e13ffd15 	stw	r4,-12(fp)
    2034:	e17ffe15 	stw	r5,-8(fp)
    2038:	e1bfff15 	stw	r6,-4(fp)
    return gpu->buffer[y * 160 + x];
    203c:	01402804 	movi	r5,160
    2040:	e13fff17 	ldw	r4,-4(fp)
    2044:	000cefc0 	call	cefc <__mulsi3>
    2048:	1007883a 	mov	r3,r2
    204c:	e0bffe17 	ldw	r2,-8(fp)
    2050:	1885883a 	add	r2,r3,r2
    2054:	e0fffd17 	ldw	r3,-12(fp)
    2058:	1885883a 	add	r2,r3,r2
    205c:	10800f04 	addi	r2,r2,60
    2060:	10800003 	ldbu	r2,0(r2)
};
    2064:	e037883a 	mov	sp,fp
    2068:	dfc00117 	ldw	ra,4(sp)
    206c:	df000017 	ldw	fp,0(sp)
    2070:	dec00204 	addi	sp,sp,8
    2074:	f800283a 	ret

00002078 <getPalette>:

// Get the palette mapping from a given palette byte as stored in memory
// A palette will map a tile color to a final palette color index
// used with Screen.colors to get a shade of grey
void getPalette(byte paletteByte, byte* palette) {
    2078:	defffa04 	addi	sp,sp,-24
    207c:	df000515 	stw	fp,20(sp)
    2080:	df000504 	addi	fp,sp,20
    2084:	2005883a 	mov	r2,r4
    2088:	e17fff15 	stw	r5,-4(fp)
    208c:	e0bffe05 	stb	r2,-8(fp)
    int counter = 0;
    2090:	e03ffb15 	stw	zero,-20(fp)
    for (int i = 0; i < 8; i += 2) {
    2094:	e03ffc15 	stw	zero,-16(fp)
    2098:	00001306 	br	20e8 <getPalette+0x70>
        byte shade = (paletteByte & (3 << i)) >> i;
    209c:	e0fffe03 	ldbu	r3,-8(fp)
    20a0:	010000c4 	movi	r4,3
    20a4:	e0bffc17 	ldw	r2,-16(fp)
    20a8:	2084983a 	sll	r2,r4,r2
    20ac:	1886703a 	and	r3,r3,r2
    20b0:	e0bffc17 	ldw	r2,-16(fp)
    20b4:	1885d83a 	sra	r2,r3,r2
    20b8:	e0bffd05 	stb	r2,-12(fp)
        palette[counter] = shade;
    20bc:	e0bffb17 	ldw	r2,-20(fp)
    20c0:	e0ffff17 	ldw	r3,-4(fp)
    20c4:	1885883a 	add	r2,r3,r2
    20c8:	e0fffd03 	ldbu	r3,-12(fp)
    20cc:	10c00005 	stb	r3,0(r2)
        counter++;
    20d0:	e0bffb17 	ldw	r2,-20(fp)
    20d4:	10800044 	addi	r2,r2,1
    20d8:	e0bffb15 	stw	r2,-20(fp)
// Get the palette mapping from a given palette byte as stored in memory
// A palette will map a tile color to a final palette color index
// used with Screen.colors to get a shade of grey
void getPalette(byte paletteByte, byte* palette) {
    int counter = 0;
    for (int i = 0; i < 8; i += 2) {
    20dc:	e0bffc17 	ldw	r2,-16(fp)
    20e0:	10800084 	addi	r2,r2,2
    20e4:	e0bffc15 	stw	r2,-16(fp)
    20e8:	e0bffc17 	ldw	r2,-16(fp)
    20ec:	10800210 	cmplti	r2,r2,8
    20f0:	103fea1e 	bne	r2,zero,209c <__alt_data_end+0xfc00209c>
        byte shade = (paletteByte & (3 << i)) >> i;
        palette[counter] = shade;
        counter++;
    }
}
    20f4:	0001883a 	nop
    20f8:	e037883a 	mov	sp,fp
    20fc:	df000017 	ldw	fp,0(sp)
    2100:	dec00104 	addi	sp,sp,4
    2104:	f800283a 	ret

00002108 <render>:
//void setPixel(unsigned x, unsigned y, byte color) {
//	buffer[(y - 8) * 160 + (x)] = color;
//
//}

void render(byte* buffer) {
    2108:	defffb04 	addi	sp,sp,-20
    210c:	df000415 	stw	fp,16(sp)
    2110:	df000404 	addi	fp,sp,16
    2114:	e13fff15 	stw	r4,-4(fp)
	int start = 0;
    2118:	e03ffc15 	stw	zero,-16(fp)
	while (screenBase <= 0x04003fff) {
    211c:	00002206 	br	21a8 <render+0xa0>
		int num = 0;
    2120:	e03ffd15 	stw	zero,-12(fp)
		for(int i = 0; i < 16; i++) {
    2124:	e03ffe15 	stw	zero,-8(fp)
    2128:	00001306 	br	2178 <render+0x70>
			num = num << 2;
    212c:	e0bffd17 	ldw	r2,-12(fp)
    2130:	1085883a 	add	r2,r2,r2
    2134:	1085883a 	add	r2,r2,r2
    2138:	e0bffd15 	stw	r2,-12(fp)
			num += (buffer[start + i] & 0x3);
    213c:	e0fffc17 	ldw	r3,-16(fp)
    2140:	e0bffe17 	ldw	r2,-8(fp)
    2144:	1885883a 	add	r2,r3,r2
    2148:	1007883a 	mov	r3,r2
    214c:	e0bfff17 	ldw	r2,-4(fp)
    2150:	10c5883a 	add	r2,r2,r3
    2154:	10800003 	ldbu	r2,0(r2)
    2158:	10803fcc 	andi	r2,r2,255
    215c:	108000cc 	andi	r2,r2,3
    2160:	e0fffd17 	ldw	r3,-12(fp)
    2164:	1885883a 	add	r2,r3,r2
    2168:	e0bffd15 	stw	r2,-12(fp)

void render(byte* buffer) {
	int start = 0;
	while (screenBase <= 0x04003fff) {
		int num = 0;
		for(int i = 0; i < 16; i++) {
    216c:	e0bffe17 	ldw	r2,-8(fp)
    2170:	10800044 	addi	r2,r2,1
    2174:	e0bffe15 	stw	r2,-8(fp)
    2178:	e0bffe17 	ldw	r2,-8(fp)
    217c:	10800410 	cmplti	r2,r2,16
    2180:	103fea1e 	bne	r2,zero,212c <__alt_data_end+0xfc00212c>
			num = num << 2;
			num += (buffer[start + i] & 0x3);
		}
		*screenBase = num;
    2184:	d0a00117 	ldw	r2,-32764(gp)
    2188:	e0fffd17 	ldw	r3,-12(fp)
    218c:	10c00015 	stw	r3,0(r2)
		screenBase += 1;
    2190:	d0a00117 	ldw	r2,-32764(gp)
    2194:	10800104 	addi	r2,r2,4
    2198:	d0a00115 	stw	r2,-32764(gp)
		start += 16;
    219c:	e0bffc17 	ldw	r2,-16(fp)
    21a0:	10800404 	addi	r2,r2,16
    21a4:	e0bffc15 	stw	r2,-16(fp)
//
//}

void render(byte* buffer) {
	int start = 0;
	while (screenBase <= 0x04003fff) {
    21a8:	d0e00117 	ldw	r3,-32764(gp)
    21ac:	00810034 	movhi	r2,1024
    21b0:	108fffc4 	addi	r2,r2,16383
    21b4:	10ffda2e 	bgeu	r2,r3,2120 <__alt_data_end+0xfc002120>
		}
		*screenBase = num;
		screenBase += 1;
		start += 16;
	}
}
    21b8:	0001883a 	nop
    21bc:	e037883a 	mov	sp,fp
    21c0:	df000017 	ldw	fp,0(sp)
    21c4:	dec00104 	addi	sp,sp,4
    21c8:	f800283a 	ret

000021cc <initTimer>:
word TIMA_addr = 0xFF05;
word TMA_addr = 0xFF06;
word TAC_addr = 0xFF07;


void initTimer(Timer* timer) {
    21cc:	defffe04 	addi	sp,sp,-8
    21d0:	df000115 	stw	fp,4(sp)
    21d4:	df000104 	addi	fp,sp,4
    21d8:	e13fff15 	stw	r4,-4(fp)
	timer->time = 0;
    21dc:	e0bfff17 	ldw	r2,-4(fp)
    21e0:	10000015 	stw	zero,0(r2)
	timer->div_time = 0;
    21e4:	e0bfff17 	ldw	r2,-4(fp)
    21e8:	10000115 	stw	zero,4(r2)
}
    21ec:	0001883a 	nop
    21f0:	e037883a 	mov	sp,fp
    21f4:	df000017 	ldw	fp,0(sp)
    21f8:	dec00104 	addi	sp,sp,4
    21fc:	f800283a 	ret

00002200 <updateTimer>:

void updateTimer(Timer* timer, int elapsed) {
    2200:	defff804 	addi	sp,sp,-32
    2204:	dfc00715 	stw	ra,28(sp)
    2208:	df000615 	stw	fp,24(sp)
    220c:	dc000515 	stw	r16,20(sp)
    2210:	df000604 	addi	fp,sp,24
    2214:	e13ffd15 	stw	r4,-12(fp)
    2218:	e17ffe15 	stw	r5,-8(fp)
	if(!(readData(TAC_addr) & 0x4)) {
    221c:	d0a0038b 	ldhu	r2,-32754(gp)
    2220:	10bfffcc 	andi	r2,r2,65535
    2224:	1009883a 	mov	r4,r2
    2228:	000026c0 	call	26c <readData>
    222c:	10803fcc 	andi	r2,r2,255
    2230:	1080010c 	andi	r2,r2,4
    2234:	10005326 	beq	r2,zero,2384 <updateTimer+0x184>
		return;
	}
	timer->time += elapsed;
    2238:	e0bffd17 	ldw	r2,-12(fp)
    223c:	10c00017 	ldw	r3,0(r2)
    2240:	e0bffe17 	ldw	r2,-8(fp)
    2244:	1887883a 	add	r3,r3,r2
    2248:	e0bffd17 	ldw	r2,-12(fp)
    224c:	10c00015 	stw	r3,0(r2)
	int threshold = 64;
    2250:	00801004 	movi	r2,64
    2254:	e0bffa15 	stw	r2,-24(fp)
	switch(readData(TAC_addr) & 3) {
    2258:	d0a0038b 	ldhu	r2,-32754(gp)
    225c:	10bfffcc 	andi	r2,r2,65535
    2260:	1009883a 	mov	r4,r2
    2264:	000026c0 	call	26c <readData>
    2268:	10803fcc 	andi	r2,r2,255
    226c:	108000cc 	andi	r2,r2,3
    2270:	10c00060 	cmpeqi	r3,r2,1
    2274:	18000c1e 	bne	r3,zero,22a8 <updateTimer+0xa8>
    2278:	10c00088 	cmpgei	r3,r2,2
    227c:	1800021e 	bne	r3,zero,2288 <updateTimer+0x88>
    2280:	10000626 	beq	r2,zero,229c <updateTimer+0x9c>
    2284:	00001106 	br	22cc <updateTimer+0xcc>
    2288:	10c000a0 	cmpeqi	r3,r2,2
    228c:	1800091e 	bne	r3,zero,22b4 <updateTimer+0xb4>
    2290:	108000e0 	cmpeqi	r2,r2,3
    2294:	10000a1e 	bne	r2,zero,22c0 <updateTimer+0xc0>
    2298:	00000c06 	br	22cc <updateTimer+0xcc>
	case 0:
		threshold = 64;
    229c:	00801004 	movi	r2,64
    22a0:	e0bffa15 	stw	r2,-24(fp)
		break;
    22a4:	00000906 	br	22cc <updateTimer+0xcc>
	case 1:
		threshold = 1;
    22a8:	00800044 	movi	r2,1
    22ac:	e0bffa15 	stw	r2,-24(fp)
		break;
    22b0:	00000606 	br	22cc <updateTimer+0xcc>
	case 2:
		threshold = 4;
    22b4:	00800104 	movi	r2,4
    22b8:	e0bffa15 	stw	r2,-24(fp)
		break;
    22bc:	00000306 	br	22cc <updateTimer+0xcc>
	case 3:
		threshold = 16;
    22c0:	00800404 	movi	r2,16
    22c4:	e0bffa15 	stw	r2,-24(fp)
		break;
    22c8:	0001883a 	nop
	}
	threshold *= 16;
    22cc:	e0bffa17 	ldw	r2,-24(fp)
    22d0:	1004913a 	slli	r2,r2,4
    22d4:	e0bffa15 	stw	r2,-24(fp)
	while(timer->time >= threshold) {
    22d8:	00002506 	br	2370 <updateTimer+0x170>
		timer->time -= threshold;
    22dc:	e0bffd17 	ldw	r2,-12(fp)
    22e0:	10c00017 	ldw	r3,0(r2)
    22e4:	e0bffa17 	ldw	r2,-24(fp)
    22e8:	1887c83a 	sub	r3,r3,r2
    22ec:	e0bffd17 	ldw	r2,-12(fp)
    22f0:	10c00015 	stw	r3,0(r2)
		byte cur_tima = readData(TIMA_addr) + 1;
    22f4:	d0a0028b 	ldhu	r2,-32758(gp)
    22f8:	10bfffcc 	andi	r2,r2,65535
    22fc:	1009883a 	mov	r4,r2
    2300:	000026c0 	call	26c <readData>
    2304:	10800044 	addi	r2,r2,1
    2308:	e0bffc05 	stb	r2,-16(fp)
		bool hasOverflown = false;
    230c:	e03ffb15 	stw	zero,-20(fp)
		if(cur_tima == 0x00) {
    2310:	e0bffc03 	ldbu	r2,-16(fp)
    2314:	1000021e 	bne	r2,zero,2320 <updateTimer+0x120>
			hasOverflown = true;
    2318:	00800044 	movi	r2,1
    231c:	e0bffb15 	stw	r2,-20(fp)
		}
		writeData(TIMA_addr, cur_tima);
    2320:	d0a0028b 	ldhu	r2,-32758(gp)
    2324:	10bfffcc 	andi	r2,r2,65535
    2328:	e0fffc03 	ldbu	r3,-16(fp)
    232c:	180b883a 	mov	r5,r3
    2330:	1009883a 	mov	r4,r2
    2334:	00003640 	call	364 <writeData>
		if(hasOverflown) {
    2338:	e0bffb17 	ldw	r2,-20(fp)
    233c:	10000c26 	beq	r2,zero,2370 <updateTimer+0x170>
			writeData(TIMA_addr, readData(TMA_addr));
    2340:	d0a0028b 	ldhu	r2,-32758(gp)
    2344:	143fffcc 	andi	r16,r2,65535
    2348:	d0a0030b 	ldhu	r2,-32756(gp)
    234c:	10bfffcc 	andi	r2,r2,65535
    2350:	1009883a 	mov	r4,r2
    2354:	000026c0 	call	26c <readData>
    2358:	10803fcc 	andi	r2,r2,255
    235c:	100b883a 	mov	r5,r2
    2360:	8009883a 	mov	r4,r16
    2364:	00003640 	call	364 <writeData>
			requestInterrupt(TIMER);
    2368:	01000084 	movi	r4,2
    236c:	00030f00 	call	30f0 <requestInterrupt>
	case 3:
		threshold = 16;
		break;
	}
	threshold *= 16;
	while(timer->time >= threshold) {
    2370:	e0bffd17 	ldw	r2,-12(fp)
    2374:	10c00017 	ldw	r3,0(r2)
    2378:	e0bffa17 	ldw	r2,-24(fp)
    237c:	18bfd70e 	bge	r3,r2,22dc <__alt_data_end+0xfc0022dc>
    2380:	00000106 	br	2388 <updateTimer+0x188>
	timer->div_time = 0;
}

void updateTimer(Timer* timer, int elapsed) {
	if(!(readData(TAC_addr) & 0x4)) {
		return;
    2384:	0001883a 	nop
		if(hasOverflown) {
			writeData(TIMA_addr, readData(TMA_addr));
			requestInterrupt(TIMER);
		}
	}
}
    2388:	e6ffff04 	addi	sp,fp,-4
    238c:	dfc00217 	ldw	ra,8(sp)
    2390:	df000117 	ldw	fp,4(sp)
    2394:	dc000017 	ldw	r16,0(sp)
    2398:	dec00304 	addi	sp,sp,12
    239c:	f800283a 	ret

000023a0 <updateDiv>:

void updateDiv(Timer* timer, int elapsed) {
    23a0:	defffa04 	addi	sp,sp,-24
    23a4:	dfc00515 	stw	ra,20(sp)
    23a8:	df000415 	stw	fp,16(sp)
    23ac:	df000404 	addi	fp,sp,16
    23b0:	e13ffe15 	stw	r4,-8(fp)
    23b4:	e17fff15 	stw	r5,-4(fp)
	int threshold = 256;
    23b8:	00804004 	movi	r2,256
    23bc:	e0bffc15 	stw	r2,-16(fp)
	timer->div_time += elapsed;
    23c0:	e0bffe17 	ldw	r2,-8(fp)
    23c4:	10c00117 	ldw	r3,4(r2)
    23c8:	e0bfff17 	ldw	r2,-4(fp)
    23cc:	1887883a 	add	r3,r3,r2
    23d0:	e0bffe17 	ldw	r2,-8(fp)
    23d4:	10c00115 	stw	r3,4(r2)
	if(timer->div_time > threshold) {
    23d8:	e0bffe17 	ldw	r2,-8(fp)
    23dc:	10800117 	ldw	r2,4(r2)
    23e0:	e0fffc17 	ldw	r3,-16(fp)
    23e4:	1880110e 	bge	r3,r2,242c <updateDiv+0x8c>
		timer->div_time -= threshold;
    23e8:	e0bffe17 	ldw	r2,-8(fp)
    23ec:	10c00117 	ldw	r3,4(r2)
    23f0:	e0bffc17 	ldw	r2,-16(fp)
    23f4:	1887c83a 	sub	r3,r3,r2
    23f8:	e0bffe17 	ldw	r2,-8(fp)
    23fc:	10c00115 	stw	r3,4(r2)
		byte cur_div = readData(DIV_addr);
    2400:	d0a0020b 	ldhu	r2,-32760(gp)
    2404:	10bfffcc 	andi	r2,r2,65535
    2408:	1009883a 	mov	r4,r2
    240c:	000026c0 	call	26c <readData>
    2410:	e0bffd05 	stb	r2,-12(fp)
		writeData(DIV_addr, cur_div & 0xFF);
    2414:	d0a0020b 	ldhu	r2,-32760(gp)
    2418:	10bfffcc 	andi	r2,r2,65535
    241c:	e0fffd03 	ldbu	r3,-12(fp)
    2420:	180b883a 	mov	r5,r3
    2424:	1009883a 	mov	r4,r2
    2428:	00003640 	call	364 <writeData>
	}
}
    242c:	0001883a 	nop
    2430:	e037883a 	mov	sp,fp
    2434:	dfc00117 	ldw	ra,4(sp)
    2438:	df000017 	ldw	fp,0(sp)
    243c:	dec00204 	addi	sp,sp,8
    2440:	f800283a 	ret

00002444 <update>:

void update(Timer* timer, int elapsed) {
    2444:	defffc04 	addi	sp,sp,-16
    2448:	dfc00315 	stw	ra,12(sp)
    244c:	df000215 	stw	fp,8(sp)
    2450:	df000204 	addi	fp,sp,8
    2454:	e13ffe15 	stw	r4,-8(fp)
    2458:	e17fff15 	stw	r5,-4(fp)
	updateDiv(timer, elapsed);
    245c:	e17fff17 	ldw	r5,-4(fp)
    2460:	e13ffe17 	ldw	r4,-8(fp)
    2464:	00023a00 	call	23a0 <updateDiv>
	updateTimer(timer, elapsed);
    2468:	e17fff17 	ldw	r5,-4(fp)
    246c:	e13ffe17 	ldw	r4,-8(fp)
    2470:	00022000 	call	2200 <updateTimer>
}
    2474:	0001883a 	nop
    2478:	e037883a 	mov	sp,fp
    247c:	dfc00117 	ldw	ra,4(sp)
    2480:	df000017 	ldw	fp,0(sp)
    2484:	dec00204 	addi	sp,sp,8
    2488:	f800283a 	ret

0000248c <resetDiv>:

void resetDiv(Timer* timer) {
    248c:	defffd04 	addi	sp,sp,-12
    2490:	dfc00215 	stw	ra,8(sp)
    2494:	df000115 	stw	fp,4(sp)
    2498:	df000104 	addi	fp,sp,4
    249c:	e13fff15 	stw	r4,-4(fp)
	timer->div_time = 0;
    24a0:	e0bfff17 	ldw	r2,-4(fp)
    24a4:	10000115 	stw	zero,4(r2)
	writeData(DIV_addr, 0);
    24a8:	d0a0020b 	ldhu	r2,-32760(gp)
    24ac:	10bfffcc 	andi	r2,r2,65535
    24b0:	000b883a 	mov	r5,zero
    24b4:	1009883a 	mov	r4,r2
    24b8:	00003640 	call	364 <writeData>
}
    24bc:	0001883a 	nop
    24c0:	e037883a 	mov	sp,fp
    24c4:	dfc00117 	ldw	ra,4(sp)
    24c8:	df000017 	ldw	fp,0(sp)
    24cc:	dec00204 	addi	sp,sp,8
    24d0:	f800283a 	ret

000024d4 <init_CPU>:



void (*opcodeArray[256])(CPU*);

void init_CPU(CPU* cpu) {
    24d4:	defffd04 	addi	sp,sp,-12
    24d8:	dfc00215 	stw	ra,8(sp)
    24dc:	df000115 	stw	fp,4(sp)
    24e0:	df000104 	addi	fp,sp,4
    24e4:	e13fff15 	stw	r4,-4(fp)
	cpu->IME_flag = true;
    24e8:	e0bfff17 	ldw	r2,-4(fp)
    24ec:	00c00044 	movi	r3,1
    24f0:	10c00815 	stw	r3,32(r2)
	cpu->is_halted = false;
    24f4:	e0bfff17 	ldw	r2,-4(fp)
    24f8:	10000915 	stw	zero,36(r2)
	cpu->is_paused = false;
    24fc:	e0bfff17 	ldw	r2,-4(fp)
    2500:	10000a15 	stw	zero,40(r2)
	cpu->usingBootROM = false;
    2504:	e0bfff17 	ldw	r2,-4(fp)
    2508:	10000b15 	stw	zero,44(r2)
	initTimer(&cpu->timer);
    250c:	e0bfff17 	ldw	r2,-4(fp)
    2510:	10800c04 	addi	r2,r2,48
    2514:	1009883a 	mov	r4,r2
    2518:	00021cc0 	call	21cc <initTimer>

}
    251c:	0001883a 	nop
    2520:	e037883a 	mov	sp,fp
    2524:	dfc00117 	ldw	ra,4(sp)
    2528:	df000017 	ldw	fp,0(sp)
    252c:	dec00204 	addi	sp,sp,8
    2530:	f800283a 	ret

00002534 <reset_CPU>:

void reset_CPU(CPU* cpu) {
    2534:	defffd04 	addi	sp,sp,-12
    2538:	dfc00215 	stw	ra,8(sp)
    253c:	df000115 	stw	fp,4(sp)
    2540:	df000104 	addi	fp,sp,4
    2544:	e13fff15 	stw	r4,-4(fp)
	cpu->registers.sp = 0xFFFE;
    2548:	e0bfff17 	ldw	r2,-4(fp)
    254c:	00ffff84 	movi	r3,-2
    2550:	10c0048d 	sth	r3,18(r2)
	resetMemory();
    2554:	00003b00 	call	3b0 <resetMemory>
}
    2558:	0001883a 	nop
    255c:	e037883a 	mov	sp,fp
    2560:	dfc00117 	ldw	ra,4(sp)
    2564:	df000017 	ldw	fp,0(sp)
    2568:	dec00204 	addi	sp,sp,8
    256c:	f800283a 	ret

00002570 <get_RAM_size>:

int get_RAM_size() {
    2570:	defffd04 	addi	sp,sp,-12
    2574:	dfc00215 	stw	ra,8(sp)
    2578:	df000115 	stw	fp,4(sp)
    257c:	df000104 	addi	fp,sp,4
	int size = 0;
    2580:	e03fff15 	stw	zero,-4(fp)
	switch(readData(0x149)) {
    2584:	01005244 	movi	r4,329
    2588:	000026c0 	call	26c <readData>
    258c:	10803fcc 	andi	r2,r2,255
    2590:	10c000a0 	cmpeqi	r3,r2,2
    2594:	1800071e 	bne	r3,zero,25b4 <get_RAM_size+0x44>
    2598:	10c000e0 	cmpeqi	r3,r2,3
    259c:	1800081e 	bne	r3,zero,25c0 <get_RAM_size+0x50>
    25a0:	10800060 	cmpeqi	r2,r2,1
    25a4:	10000926 	beq	r2,zero,25cc <get_RAM_size+0x5c>
		case 1:
			size = 2048;
    25a8:	00820004 	movi	r2,2048
    25ac:	e0bfff15 	stw	r2,-4(fp)
			break;
    25b0:	00000606 	br	25cc <get_RAM_size+0x5c>
		case 2:
			size = 2048 * 4;
    25b4:	00880004 	movi	r2,8192
    25b8:	e0bfff15 	stw	r2,-4(fp)
			break;
    25bc:	00000306 	br	25cc <get_RAM_size+0x5c>
		case 3:
			size = 2048 * 16;
    25c0:	00a00014 	movui	r2,32768
    25c4:	e0bfff15 	stw	r2,-4(fp)
			break;
    25c8:	0001883a 	nop
	}

	return size;
    25cc:	e0bfff17 	ldw	r2,-4(fp)
}
    25d0:	e037883a 	mov	sp,fp
    25d4:	dfc00117 	ldw	ra,4(sp)
    25d8:	df000017 	ldw	fp,0(sp)
    25dc:	dec00204 	addi	sp,sp,8
    25e0:	f800283a 	ret

000025e4 <getGameName>:

void getGameName() {
    25e4:	defff904 	addi	sp,sp,-28
    25e8:	dfc00615 	stw	ra,24(sp)
    25ec:	df000515 	stw	fp,20(sp)
    25f0:	df000504 	addi	fp,sp,20
	char name[11];
	word addr = 0x134;
    25f4:	00804d04 	movi	r2,308
    25f8:	e0bffb0d 	sth	r2,-20(fp)
	for(int i = 0; i < 10; i++) {
    25fc:	e03ffc15 	stw	zero,-16(fp)
    2600:	00000e06 	br	263c <getGameName+0x58>
		name[i] = readData(addr);
    2604:	e0bffb0b 	ldhu	r2,-20(fp)
    2608:	1009883a 	mov	r4,r2
    260c:	000026c0 	call	26c <readData>
    2610:	1009883a 	mov	r4,r2
    2614:	e0fffd04 	addi	r3,fp,-12
    2618:	e0bffc17 	ldw	r2,-16(fp)
    261c:	1885883a 	add	r2,r3,r2
    2620:	11000005 	stb	r4,0(r2)
		addr += 1;
    2624:	e0bffb0b 	ldhu	r2,-20(fp)
    2628:	10800044 	addi	r2,r2,1
    262c:	e0bffb0d 	sth	r2,-20(fp)
}

void getGameName() {
	char name[11];
	word addr = 0x134;
	for(int i = 0; i < 10; i++) {
    2630:	e0bffc17 	ldw	r2,-16(fp)
    2634:	10800044 	addi	r2,r2,1
    2638:	e0bffc15 	stw	r2,-16(fp)
    263c:	e0bffc17 	ldw	r2,-16(fp)
    2640:	10800290 	cmplti	r2,r2,10
    2644:	103fef1e 	bne	r2,zero,2604 <__alt_data_end+0xfc002604>
		name[i] = readData(addr);
		addr += 1;
	}
	printf("%s\n", name);
    2648:	e0bffd04 	addi	r2,fp,-12
    264c:	1009883a 	mov	r4,r2
    2650:	000d0880 	call	d088 <puts>
}
    2654:	0001883a 	nop
    2658:	e037883a 	mov	sp,fp
    265c:	dfc00117 	ldw	ra,4(sp)
    2660:	df000017 	ldw	fp,0(sp)
    2664:	dec00204 	addi	sp,sp,8
    2668:	f800283a 	ret

0000266c <run>:
void checkInterrupt(CPU* cpu);
void fetch(CPU* cpu);
void run(CPU* cpu) {
    266c:	defffd04 	addi	sp,sp,-12
    2670:	dfc00215 	stw	ra,8(sp)
    2674:	df000115 	stw	fp,4(sp)
    2678:	df000104 	addi	fp,sp,4
    267c:	e13fff15 	stw	r4,-4(fp)
	if(cpu->usingBootROM == true) {
    2680:	e0bfff17 	ldw	r2,-4(fp)
    2684:	10800b17 	ldw	r2,44(r2)
    2688:	10800058 	cmpnei	r2,r2,1
    268c:	1000031e 	bne	r2,zero,269c <run+0x30>
		cpu->registers.pc = 0x0000;
    2690:	e0bfff17 	ldw	r2,-4(fp)
    2694:	1000040d 	sth	zero,16(r2)
    2698:	00000306 	br	26a8 <run+0x3c>
	}else {
		cpu->registers.pc = 0x0100;
    269c:	e0bfff17 	ldw	r2,-4(fp)
    26a0:	00c04004 	movi	r3,256
    26a4:	10c0040d 	sth	r3,16(r2)
	}
	fetch(cpu);
    26a8:	e13fff17 	ldw	r4,-4(fp)
    26ac:	00027200 	call	2720 <fetch>
}
    26b0:	0001883a 	nop
    26b4:	e037883a 	mov	sp,fp
    26b8:	dfc00117 	ldw	ra,4(sp)
    26bc:	df000017 	ldw	fp,0(sp)
    26c0:	dec00204 	addi	sp,sp,8
    26c4:	f800283a 	ret

000026c8 <updateInput>:

byte fetchOpcode(CPU* cpu);
void executeOpcode(CPU* cpu, byte opcode);

void updateInput() {
    26c8:	defffd04 	addi	sp,sp,-12
    26cc:	dfc00215 	stw	ra,8(sp)
    26d0:	df000115 	stw	fp,4(sp)
    26d4:	df000104 	addi	fp,sp,4
	volatile unsigned int *KEY_PIO = (unsigned int*)0x04005120;
    26d8:	00810034 	movhi	r2,1024
    26dc:	10944804 	addi	r2,r2,20768
    26e0:	e0bfff15 	stw	r2,-4(fp)
//	printf("%d\n", *KEY_PIO);
	if(*KEY_PIO  != 3) {
    26e4:	e0bfff17 	ldw	r2,-4(fp)
    26e8:	10800017 	ldw	r2,0(r2)
    26ec:	108000e0 	cmpeqi	r2,r2,3
    26f0:	1000051e 	bne	r2,zero,2708 <updateInput+0x40>
		printf("Executing Input Interrupt START\n");
    26f4:	010000b4 	movhi	r4,2
    26f8:	2130d104 	addi	r4,r4,-15548
    26fc:	000d0880 	call	d088 <puts>
		requestInterrupt(HILO);
    2700:	01000104 	movi	r4,4
    2704:	00030f00 	call	30f0 <requestInterrupt>
	}
}
    2708:	0001883a 	nop
    270c:	e037883a 	mov	sp,fp
    2710:	dfc00117 	ldw	ra,4(sp)
    2714:	df000017 	ldw	fp,0(sp)
    2718:	dec00204 	addi	sp,sp,8
    271c:	f800283a 	ret

00002720 <fetch>:

void fetch(CPU* cpu) {
    2720:	defff904 	addi	sp,sp,-28
    2724:	dfc00615 	stw	ra,24(sp)
    2728:	df000515 	stw	fp,20(sp)
    272c:	df000504 	addi	fp,sp,20
    2730:	e13fff15 	stw	r4,-4(fp)
	bool vBlank = false;
    2734:	e03ffb15 	stw	zero,-20(fp)
	while(1) {
		int oldInstruction = cpu->clock.c;
    2738:	e0bfff17 	ldw	r2,-4(fp)
    273c:	10800017 	ldw	r2,0(r2)
    2740:	e0bffc15 	stw	r2,-16(fp)
		if(cpu->is_halted == false){
    2744:	e0bfff17 	ldw	r2,-4(fp)
    2748:	10800917 	ldw	r2,36(r2)
    274c:	10000f1e 	bne	r2,zero,278c <fetch+0x6c>
			byte opcode = fetchOpcode(cpu);
    2750:	e13fff17 	ldw	r4,-4(fp)
    2754:	00027f00 	call	27f0 <fetchOpcode>
    2758:	e0bffd05 	stb	r2,-12(fp)
			executeOpcode(cpu, opcode);
    275c:	e0bffd03 	ldbu	r2,-12(fp)
    2760:	100b883a 	mov	r5,r2
    2764:	e13fff17 	ldw	r4,-4(fp)
    2768:	000283c0 	call	283c <executeOpcode>
			cpu->registers.f &= 0xF0;
    276c:	e0bfff17 	ldw	r2,-4(fp)
    2770:	10c003c3 	ldbu	r3,15(r2)
    2774:	00bffc04 	movi	r2,-16
    2778:	1884703a 	and	r2,r3,r2
    277c:	1007883a 	mov	r3,r2
    2780:	e0bfff17 	ldw	r2,-4(fp)
    2784:	10c003c5 	stb	r3,15(r2)
    2788:	00000506 	br	27a0 <fetch+0x80>
		}else {
			cpu->clock.c += 4;
    278c:	e0bfff17 	ldw	r2,-4(fp)
    2790:	10800017 	ldw	r2,0(r2)
    2794:	10c00104 	addi	r3,r2,4
    2798:	e0bfff17 	ldw	r2,-4(fp)
    279c:	10c00015 	stw	r3,0(r2)
		}

		int elapsed = cpu->clock.c - oldInstruction;
    27a0:	e0bfff17 	ldw	r2,-4(fp)
    27a4:	10c00017 	ldw	r3,0(r2)
    27a8:	e0bffc17 	ldw	r2,-16(fp)
    27ac:	1885c83a 	sub	r2,r3,r2
    27b0:	e0bffe15 	stw	r2,-8(fp)
		vBlank = gpuUpdate(cpu->gpu, elapsed);
    27b4:	e0bfff17 	ldw	r2,-4(fp)
    27b8:	10800e17 	ldw	r2,56(r2)
    27bc:	e17ffe17 	ldw	r5,-8(fp)
    27c0:	1009883a 	mov	r4,r2
    27c4:	00005b40 	call	5b4 <gpuUpdate>
    27c8:	e0bffb15 	stw	r2,-20(fp)
		updateTimer(&(cpu->timer), elapsed);
    27cc:	e0bfff17 	ldw	r2,-4(fp)
    27d0:	10800c04 	addi	r2,r2,48
    27d4:	e17ffe17 	ldw	r5,-8(fp)
    27d8:	1009883a 	mov	r4,r2
    27dc:	00022000 	call	2200 <updateTimer>
		//TODO: Update Input
		updateInput();
    27e0:	00026c80 	call	26c8 <updateInput>
		checkInterrupt(cpu);
    27e4:	e13fff17 	ldw	r4,-4(fp)
    27e8:	0002f880 	call	2f88 <checkInterrupt>
	}
    27ec:	003fd206 	br	2738 <__alt_data_end+0xfc002738>

000027f0 <fetchOpcode>:
	cpu->clock.c = 0;
}

byte fetchOpcode(CPU* cpu) {
    27f0:	defffd04 	addi	sp,sp,-12
    27f4:	dfc00215 	stw	ra,8(sp)
    27f8:	df000115 	stw	fp,4(sp)
    27fc:	df000104 	addi	fp,sp,4
    2800:	e13fff15 	stw	r4,-4(fp)
	return readData(cpu->registers.pc++);
    2804:	e0bfff17 	ldw	r2,-4(fp)
    2808:	1080040b 	ldhu	r2,16(r2)
    280c:	10c00044 	addi	r3,r2,1
    2810:	1809883a 	mov	r4,r3
    2814:	e0ffff17 	ldw	r3,-4(fp)
    2818:	1900040d 	sth	r4,16(r3)
    281c:	10bfffcc 	andi	r2,r2,65535
    2820:	1009883a 	mov	r4,r2
    2824:	000026c0 	call	26c <readData>
}
    2828:	e037883a 	mov	sp,fp
    282c:	dfc00117 	ldw	ra,4(sp)
    2830:	df000017 	ldw	fp,0(sp)
    2834:	dec00204 	addi	sp,sp,8
    2838:	f800283a 	ret

0000283c <executeOpcode>:

void executeOpcode(CPU* cpu, byte opcode) {
    283c:	defffb04 	addi	sp,sp,-20
    2840:	dfc00415 	stw	ra,16(sp)
    2844:	df000315 	stw	fp,12(sp)
    2848:	df000304 	addi	fp,sp,12
    284c:	e13ffe15 	stw	r4,-8(fp)
    2850:	2805883a 	mov	r2,r5
    2854:	e0bfff05 	stb	r2,-4(fp)
	if(opcodeArray[opcode] == NULL){
    2858:	e0ffff03 	ldbu	r3,-4(fp)
    285c:	008000b4 	movhi	r2,2
    2860:	10bf4a04 	addi	r2,r2,-728
    2864:	18c7883a 	add	r3,r3,r3
    2868:	18c7883a 	add	r3,r3,r3
    286c:	10c5883a 	add	r2,r2,r3
    2870:	10800017 	ldw	r2,0(r2)
    2874:	1000071e 	bne	r2,zero,2894 <executeOpcode+0x58>
		printf("Undefined Opcode: %02x\n", opcode);
    2878:	e0bfff03 	ldbu	r2,-4(fp)
    287c:	100b883a 	mov	r5,r2
    2880:	010000b4 	movhi	r4,2
    2884:	2130d904 	addi	r4,r4,-15516
    2888:	000cf8c0 	call	cf8c <printf>
		exit(1);
    288c:	01000044 	movi	r4,1
    2890:	000cf240 	call	cf24 <exit>
	}
	printf("Executing Opcode %04x: %02x   | B: %02x   L: %02x\n",cpu->registers.pc - 1, opcode, cpu->registers.b, cpu->registers.l);
    2894:	e0bffe17 	ldw	r2,-8(fp)
    2898:	1080040b 	ldhu	r2,16(r2)
    289c:	10bfffcc 	andi	r2,r2,65535
    28a0:	10ffffc4 	addi	r3,r2,-1
    28a4:	e13fff03 	ldbu	r4,-4(fp)
    28a8:	e0bffe17 	ldw	r2,-8(fp)
    28ac:	10800243 	ldbu	r2,9(r2)
    28b0:	11403fcc 	andi	r5,r2,255
    28b4:	e0bffe17 	ldw	r2,-8(fp)
    28b8:	10800383 	ldbu	r2,14(r2)
    28bc:	10803fcc 	andi	r2,r2,255
    28c0:	d8800015 	stw	r2,0(sp)
    28c4:	280f883a 	mov	r7,r5
    28c8:	200d883a 	mov	r6,r4
    28cc:	180b883a 	mov	r5,r3
    28d0:	010000b4 	movhi	r4,2
    28d4:	2130df04 	addi	r4,r4,-15492
    28d8:	000cf8c0 	call	cf8c <printf>
	(*opcodeArray[opcode])(cpu);
    28dc:	e0ffff03 	ldbu	r3,-4(fp)
    28e0:	008000b4 	movhi	r2,2
    28e4:	10bf4a04 	addi	r2,r2,-728
    28e8:	18c7883a 	add	r3,r3,r3
    28ec:	18c7883a 	add	r3,r3,r3
    28f0:	10c5883a 	add	r2,r2,r3
    28f4:	10800017 	ldw	r2,0(r2)
    28f8:	e13ffe17 	ldw	r4,-8(fp)
    28fc:	103ee83a 	callr	r2
}
    2900:	0001883a 	nop
    2904:	e037883a 	mov	sp,fp
    2908:	dfc00117 	ldw	ra,4(sp)
    290c:	df000017 	ldw	fp,0(sp)
    2910:	dec00204 	addi	sp,sp,8
    2914:	f800283a 	ret

00002918 <rr8>:



byte rr8(CPU* cpu, reg_name r) {
    2918:	defffd04 	addi	sp,sp,-12
    291c:	df000215 	stw	fp,8(sp)
    2920:	df000204 	addi	fp,sp,8
    2924:	e13ffe15 	stw	r4,-8(fp)
    2928:	e17fff15 	stw	r5,-4(fp)
	switch(r) {
    292c:	e0bfff17 	ldw	r2,-4(fp)
    2930:	10800228 	cmpgeui	r2,r2,8
    2934:	1000271e 	bne	r2,zero,29d4 <rr8+0xbc>
    2938:	e0bfff17 	ldw	r2,-4(fp)
    293c:	100690ba 	slli	r3,r2,2
    2940:	00800034 	movhi	r2,0
    2944:	108a5504 	addi	r2,r2,10580
    2948:	1885883a 	add	r2,r3,r2
    294c:	10800017 	ldw	r2,0(r2)
    2950:	1000683a 	jmp	r2
    2954:	00002974 	movhi	zero,165
    2958:	00002980 	call	298 <readData+0x2c>
    295c:	0000298c 	andi	zero,zero,166
    2960:	00002998 	cmpnei	zero,zero,166
    2964:	000029a4 	muli	zero,zero,166
    2968:	000029b0 	cmpltui	zero,zero,166
    296c:	000029bc 	xorhi	zero,zero,166
    2970:	000029c8 	cmpgei	zero,zero,167
	case A:
		return cpu->registers.a;
    2974:	e0bffe17 	ldw	r2,-8(fp)
    2978:	10800203 	ldbu	r2,8(r2)
    297c:	00001606 	br	29d8 <rr8+0xc0>
	case B:
		return cpu->registers.b;
    2980:	e0bffe17 	ldw	r2,-8(fp)
    2984:	10800243 	ldbu	r2,9(r2)
    2988:	00001306 	br	29d8 <rr8+0xc0>
	case C:
		return cpu->registers.c;
    298c:	e0bffe17 	ldw	r2,-8(fp)
    2990:	10800283 	ldbu	r2,10(r2)
    2994:	00001006 	br	29d8 <rr8+0xc0>
	case D:
		return cpu->registers.d;
    2998:	e0bffe17 	ldw	r2,-8(fp)
    299c:	108002c3 	ldbu	r2,11(r2)
    29a0:	00000d06 	br	29d8 <rr8+0xc0>
	case E:
		return cpu->registers.e;
    29a4:	e0bffe17 	ldw	r2,-8(fp)
    29a8:	10800303 	ldbu	r2,12(r2)
    29ac:	00000a06 	br	29d8 <rr8+0xc0>
	case F:
		return cpu->registers.f;
    29b0:	e0bffe17 	ldw	r2,-8(fp)
    29b4:	108003c3 	ldbu	r2,15(r2)
    29b8:	00000706 	br	29d8 <rr8+0xc0>
	case H:
		return cpu->registers.h;
    29bc:	e0bffe17 	ldw	r2,-8(fp)
    29c0:	10800343 	ldbu	r2,13(r2)
    29c4:	00000406 	br	29d8 <rr8+0xc0>
	case L:
		return cpu->registers.l;
    29c8:	e0bffe17 	ldw	r2,-8(fp)
    29cc:	10800383 	ldbu	r2,14(r2)
    29d0:	00000106 	br	29d8 <rr8+0xc0>
	default:
		return 0x00;
    29d4:	0005883a 	mov	r2,zero
	}
	return 0x00;
}
    29d8:	e037883a 	mov	sp,fp
    29dc:	df000017 	ldw	fp,0(sp)
    29e0:	dec00104 	addi	sp,sp,4
    29e4:	f800283a 	ret

000029e8 <rr16>:
word rr16(CPU* cpu, reg_name r) {
    29e8:	defffc04 	addi	sp,sp,-16
    29ec:	df000315 	stw	fp,12(sp)
    29f0:	df000304 	addi	fp,sp,12
    29f4:	e13ffe15 	stw	r4,-8(fp)
    29f8:	e17fff15 	stw	r5,-4(fp)
	word out = 0x0000;
    29fc:	e03ffd0d 	sth	zero,-12(fp)
	switch(r) {
    2a00:	e0bfff17 	ldw	r2,-4(fp)
    2a04:	10bffe04 	addi	r2,r2,-8
    2a08:	10c001a8 	cmpgeui	r3,r2,6
    2a0c:	1800561e 	bne	r3,zero,2b68 <rr16+0x180>
    2a10:	100690ba 	slli	r3,r2,2
    2a14:	00800034 	movhi	r2,0
    2a18:	108a8a04 	addi	r2,r2,10792
    2a1c:	1885883a 	add	r2,r3,r2
    2a20:	10800017 	ldw	r2,0(r2)
    2a24:	1000683a 	jmp	r2
    2a28:	00002a40 	call	2a4 <readData+0x38>
    2a2c:	00002a84 	movi	zero,170
    2a30:	00002ac8 	cmpgei	zero,zero,171
    2a34:	00002b0c 	andi	zero,zero,172
    2a38:	00002b50 	cmplti	zero,zero,173
    2a3c:	00002b5c 	xori	zero,zero,173
	case AF:
		out += cpu->registers.a;
    2a40:	e0bffe17 	ldw	r2,-8(fp)
    2a44:	10800203 	ldbu	r2,8(r2)
    2a48:	10c03fcc 	andi	r3,r2,255
    2a4c:	e0bffd0b 	ldhu	r2,-12(fp)
    2a50:	1885883a 	add	r2,r3,r2
    2a54:	e0bffd0d 	sth	r2,-12(fp)
		out = out << 8;
    2a58:	e0bffd0b 	ldhu	r2,-12(fp)
    2a5c:	1004923a 	slli	r2,r2,8
    2a60:	e0bffd0d 	sth	r2,-12(fp)
		out += cpu->registers.f;
    2a64:	e0bffe17 	ldw	r2,-8(fp)
    2a68:	108003c3 	ldbu	r2,15(r2)
    2a6c:	10c03fcc 	andi	r3,r2,255
    2a70:	e0bffd0b 	ldhu	r2,-12(fp)
    2a74:	1885883a 	add	r2,r3,r2
    2a78:	e0bffd0d 	sth	r2,-12(fp)
		return out;
    2a7c:	e0bffd0b 	ldhu	r2,-12(fp)
    2a80:	00003a06 	br	2b6c <rr16+0x184>
	case BC:
		out += cpu->registers.b;
    2a84:	e0bffe17 	ldw	r2,-8(fp)
    2a88:	10800243 	ldbu	r2,9(r2)
    2a8c:	10c03fcc 	andi	r3,r2,255
    2a90:	e0bffd0b 	ldhu	r2,-12(fp)
    2a94:	1885883a 	add	r2,r3,r2
    2a98:	e0bffd0d 	sth	r2,-12(fp)
		out = out << 8;
    2a9c:	e0bffd0b 	ldhu	r2,-12(fp)
    2aa0:	1004923a 	slli	r2,r2,8
    2aa4:	e0bffd0d 	sth	r2,-12(fp)
		out += cpu->registers.c;
    2aa8:	e0bffe17 	ldw	r2,-8(fp)
    2aac:	10800283 	ldbu	r2,10(r2)
    2ab0:	10c03fcc 	andi	r3,r2,255
    2ab4:	e0bffd0b 	ldhu	r2,-12(fp)
    2ab8:	1885883a 	add	r2,r3,r2
    2abc:	e0bffd0d 	sth	r2,-12(fp)
		return out;
    2ac0:	e0bffd0b 	ldhu	r2,-12(fp)
    2ac4:	00002906 	br	2b6c <rr16+0x184>
	case DE:
		out += cpu->registers.d;
    2ac8:	e0bffe17 	ldw	r2,-8(fp)
    2acc:	108002c3 	ldbu	r2,11(r2)
    2ad0:	10c03fcc 	andi	r3,r2,255
    2ad4:	e0bffd0b 	ldhu	r2,-12(fp)
    2ad8:	1885883a 	add	r2,r3,r2
    2adc:	e0bffd0d 	sth	r2,-12(fp)
		out = out << 8;
    2ae0:	e0bffd0b 	ldhu	r2,-12(fp)
    2ae4:	1004923a 	slli	r2,r2,8
    2ae8:	e0bffd0d 	sth	r2,-12(fp)
		out += cpu->registers.e;
    2aec:	e0bffe17 	ldw	r2,-8(fp)
    2af0:	10800303 	ldbu	r2,12(r2)
    2af4:	10c03fcc 	andi	r3,r2,255
    2af8:	e0bffd0b 	ldhu	r2,-12(fp)
    2afc:	1885883a 	add	r2,r3,r2
    2b00:	e0bffd0d 	sth	r2,-12(fp)
		return out;
    2b04:	e0bffd0b 	ldhu	r2,-12(fp)
    2b08:	00001806 	br	2b6c <rr16+0x184>
	case HL:
		out += cpu->registers.h;
    2b0c:	e0bffe17 	ldw	r2,-8(fp)
    2b10:	10800343 	ldbu	r2,13(r2)
    2b14:	10c03fcc 	andi	r3,r2,255
    2b18:	e0bffd0b 	ldhu	r2,-12(fp)
    2b1c:	1885883a 	add	r2,r3,r2
    2b20:	e0bffd0d 	sth	r2,-12(fp)
		out = out << 8;
    2b24:	e0bffd0b 	ldhu	r2,-12(fp)
    2b28:	1004923a 	slli	r2,r2,8
    2b2c:	e0bffd0d 	sth	r2,-12(fp)
		out += cpu->registers.l;
    2b30:	e0bffe17 	ldw	r2,-8(fp)
    2b34:	10800383 	ldbu	r2,14(r2)
    2b38:	10c03fcc 	andi	r3,r2,255
    2b3c:	e0bffd0b 	ldhu	r2,-12(fp)
    2b40:	1885883a 	add	r2,r3,r2
    2b44:	e0bffd0d 	sth	r2,-12(fp)
		return out;
    2b48:	e0bffd0b 	ldhu	r2,-12(fp)
    2b4c:	00000706 	br	2b6c <rr16+0x184>
	case SP:
		return cpu->registers.sp;
    2b50:	e0bffe17 	ldw	r2,-8(fp)
    2b54:	1080048b 	ldhu	r2,18(r2)
    2b58:	00000406 	br	2b6c <rr16+0x184>
	case PC:
		return cpu->registers.pc;
    2b5c:	e0bffe17 	ldw	r2,-8(fp)
    2b60:	1080040b 	ldhu	r2,16(r2)
    2b64:	00000106 	br	2b6c <rr16+0x184>
	default:
		return out;
    2b68:	e0bffd0b 	ldhu	r2,-12(fp)
	}
	return out;
}
    2b6c:	e037883a 	mov	sp,fp
    2b70:	df000017 	ldw	fp,0(sp)
    2b74:	dec00104 	addi	sp,sp,4
    2b78:	f800283a 	ret

00002b7c <wr8>:

void wr8(CPU* cpu, reg_name r, byte value) {
    2b7c:	defffc04 	addi	sp,sp,-16
    2b80:	df000315 	stw	fp,12(sp)
    2b84:	df000304 	addi	fp,sp,12
    2b88:	e13ffd15 	stw	r4,-12(fp)
    2b8c:	e17ffe15 	stw	r5,-8(fp)
    2b90:	3005883a 	mov	r2,r6
    2b94:	e0bfff05 	stb	r2,-4(fp)
	switch(r) {
    2b98:	e0bffe17 	ldw	r2,-8(fp)
    2b9c:	10800228 	cmpgeui	r2,r2,8
    2ba0:	10002f1e 	bne	r2,zero,2c60 <wr8+0xe4>
    2ba4:	e0bffe17 	ldw	r2,-8(fp)
    2ba8:	100690ba 	slli	r3,r2,2
    2bac:	00800034 	movhi	r2,0
    2bb0:	108af004 	addi	r2,r2,11200
    2bb4:	1885883a 	add	r2,r3,r2
    2bb8:	10800017 	ldw	r2,0(r2)
    2bbc:	1000683a 	jmp	r2
    2bc0:	00002be0 	cmpeqi	zero,zero,175
    2bc4:	00002bf0 	cmpltui	zero,zero,175
    2bc8:	00002c00 	call	2c0 <dmaTransfer+0x18>
    2bcc:	00002c10 	cmplti	zero,zero,176
    2bd0:	00002c20 	cmpeqi	zero,zero,176
    2bd4:	00002c30 	cmpltui	zero,zero,176
    2bd8:	00002c40 	call	2c4 <dmaTransfer+0x1c>
    2bdc:	00002c50 	cmplti	zero,zero,177
	case A:
		cpu->registers.a = value;
    2be0:	e0bffd17 	ldw	r2,-12(fp)
    2be4:	e0ffff03 	ldbu	r3,-4(fp)
    2be8:	10c00205 	stb	r3,8(r2)
		break;
    2bec:	00001d06 	br	2c64 <wr8+0xe8>
	case B:
		cpu->registers.b = value;
    2bf0:	e0bffd17 	ldw	r2,-12(fp)
    2bf4:	e0ffff03 	ldbu	r3,-4(fp)
    2bf8:	10c00245 	stb	r3,9(r2)
		break;
    2bfc:	00001906 	br	2c64 <wr8+0xe8>
	case C:
		cpu->registers.c = value;
    2c00:	e0bffd17 	ldw	r2,-12(fp)
    2c04:	e0ffff03 	ldbu	r3,-4(fp)
    2c08:	10c00285 	stb	r3,10(r2)
		break;
    2c0c:	00001506 	br	2c64 <wr8+0xe8>
	case D:
		cpu->registers.d = value;
    2c10:	e0bffd17 	ldw	r2,-12(fp)
    2c14:	e0ffff03 	ldbu	r3,-4(fp)
    2c18:	10c002c5 	stb	r3,11(r2)
		break;
    2c1c:	00001106 	br	2c64 <wr8+0xe8>
	case E:
		cpu->registers.e = value;
    2c20:	e0bffd17 	ldw	r2,-12(fp)
    2c24:	e0ffff03 	ldbu	r3,-4(fp)
    2c28:	10c00305 	stb	r3,12(r2)
		break;
    2c2c:	00000d06 	br	2c64 <wr8+0xe8>
	case F:
		cpu->registers.f = value;
    2c30:	e0bffd17 	ldw	r2,-12(fp)
    2c34:	e0ffff03 	ldbu	r3,-4(fp)
    2c38:	10c003c5 	stb	r3,15(r2)
		break;
    2c3c:	00000906 	br	2c64 <wr8+0xe8>
	case H:
		cpu->registers.h = value;
    2c40:	e0bffd17 	ldw	r2,-12(fp)
    2c44:	e0ffff03 	ldbu	r3,-4(fp)
    2c48:	10c00345 	stb	r3,13(r2)
		break;
    2c4c:	00000506 	br	2c64 <wr8+0xe8>
	case L:
		cpu->registers.l = value;
    2c50:	e0bffd17 	ldw	r2,-12(fp)
    2c54:	e0ffff03 	ldbu	r3,-4(fp)
    2c58:	10c00385 	stb	r3,14(r2)
		break;
    2c5c:	00000106 	br	2c64 <wr8+0xe8>
	default:
		break;
    2c60:	0001883a 	nop
	}
}
    2c64:	0001883a 	nop
    2c68:	e037883a 	mov	sp,fp
    2c6c:	df000017 	ldw	fp,0(sp)
    2c70:	dec00104 	addi	sp,sp,4
    2c74:	f800283a 	ret

00002c78 <wr16>:

void wr16(CPU* cpu, reg_name r, word value) {
    2c78:	defffb04 	addi	sp,sp,-20
    2c7c:	df000415 	stw	fp,16(sp)
    2c80:	df000404 	addi	fp,sp,16
    2c84:	e13ffd15 	stw	r4,-12(fp)
    2c88:	e17ffe15 	stw	r5,-8(fp)
    2c8c:	3005883a 	mov	r2,r6
    2c90:	e0bfff0d 	sth	r2,-4(fp)
	byte p1 = 0x00;
    2c94:	e03ffc05 	stb	zero,-16(fp)
	byte p2 = 0x00;
    2c98:	e03ffc45 	stb	zero,-15(fp)
	p1 = (value & 0xFF00) >> 8;
    2c9c:	e0bfff0b 	ldhu	r2,-4(fp)
    2ca0:	1004d23a 	srli	r2,r2,8
    2ca4:	e0bffc05 	stb	r2,-16(fp)
	p2 = (value & 0x00FF);
    2ca8:	e0bfff0b 	ldhu	r2,-4(fp)
    2cac:	e0bffc45 	stb	r2,-15(fp)
	switch(r) {
    2cb0:	e0bffe17 	ldw	r2,-8(fp)
    2cb4:	10bffe04 	addi	r2,r2,-8
    2cb8:	10c001a8 	cmpgeui	r3,r2,6
    2cbc:	1800301e 	bne	r3,zero,2d80 <wr16+0x108>
    2cc0:	100690ba 	slli	r3,r2,2
    2cc4:	00800034 	movhi	r2,0
    2cc8:	108b3604 	addi	r2,r2,11480
    2ccc:	1885883a 	add	r2,r3,r2
    2cd0:	10800017 	ldw	r2,0(r2)
    2cd4:	1000683a 	jmp	r2
    2cd8:	00002cf0 	cmpltui	zero,zero,179
    2cdc:	00002d0c 	andi	zero,zero,180
    2ce0:	00002d28 	cmpgeui	zero,zero,180
    2ce4:	00002d44 	movi	zero,181
    2ce8:	00002d60 	cmpeqi	zero,zero,181
    2cec:	00002d70 	cmpltui	zero,zero,181
	case AF:
		cpu->registers.a = p1;
    2cf0:	e0bffd17 	ldw	r2,-12(fp)
    2cf4:	e0fffc03 	ldbu	r3,-16(fp)
    2cf8:	10c00205 	stb	r3,8(r2)
		cpu->registers.f = p2;
    2cfc:	e0bffd17 	ldw	r2,-12(fp)
    2d00:	e0fffc43 	ldbu	r3,-15(fp)
    2d04:	10c003c5 	stb	r3,15(r2)
		break;
    2d08:	00001e06 	br	2d84 <wr16+0x10c>
	case BC:
		cpu->registers.b = p1;
    2d0c:	e0bffd17 	ldw	r2,-12(fp)
    2d10:	e0fffc03 	ldbu	r3,-16(fp)
    2d14:	10c00245 	stb	r3,9(r2)
		cpu->registers.c = p2;
    2d18:	e0bffd17 	ldw	r2,-12(fp)
    2d1c:	e0fffc43 	ldbu	r3,-15(fp)
    2d20:	10c00285 	stb	r3,10(r2)
		break;
    2d24:	00001706 	br	2d84 <wr16+0x10c>
	case DE:
		cpu->registers.d = p1;
    2d28:	e0bffd17 	ldw	r2,-12(fp)
    2d2c:	e0fffc03 	ldbu	r3,-16(fp)
    2d30:	10c002c5 	stb	r3,11(r2)
		cpu->registers.e = p2;
    2d34:	e0bffd17 	ldw	r2,-12(fp)
    2d38:	e0fffc43 	ldbu	r3,-15(fp)
    2d3c:	10c00305 	stb	r3,12(r2)
		break;
    2d40:	00001006 	br	2d84 <wr16+0x10c>
	case HL:
		cpu->registers.h = p1;
    2d44:	e0bffd17 	ldw	r2,-12(fp)
    2d48:	e0fffc03 	ldbu	r3,-16(fp)
    2d4c:	10c00345 	stb	r3,13(r2)
		cpu->registers.l = p2;
    2d50:	e0bffd17 	ldw	r2,-12(fp)
    2d54:	e0fffc43 	ldbu	r3,-15(fp)
    2d58:	10c00385 	stb	r3,14(r2)
		break;
    2d5c:	00000906 	br	2d84 <wr16+0x10c>
	case SP:
		cpu->registers.sp = value;
    2d60:	e0bffd17 	ldw	r2,-12(fp)
    2d64:	e0ffff0b 	ldhu	r3,-4(fp)
    2d68:	10c0048d 	sth	r3,18(r2)
		break;
    2d6c:	00000506 	br	2d84 <wr16+0x10c>
	case PC:
		cpu->registers.pc = value;
    2d70:	e0bffd17 	ldw	r2,-12(fp)
    2d74:	e0ffff0b 	ldhu	r3,-4(fp)
    2d78:	10c0040d 	sth	r3,16(r2)
		break;
    2d7c:	00000106 	br	2d84 <wr16+0x10c>
	default:
		break;
    2d80:	0001883a 	nop
	}
}
    2d84:	0001883a 	nop
    2d88:	e037883a 	mov	sp,fp
    2d8c:	df000017 	ldw	fp,0(sp)
    2d90:	dec00104 	addi	sp,sp,4
    2d94:	f800283a 	ret

00002d98 <halt>:

void halt(CPU* cpu) {
    2d98:	defffe04 	addi	sp,sp,-8
    2d9c:	df000115 	stw	fp,4(sp)
    2da0:	df000104 	addi	fp,sp,4
    2da4:	e13fff15 	stw	r4,-4(fp)
	cpu->is_halted = true;
    2da8:	e0bfff17 	ldw	r2,-4(fp)
    2dac:	00c00044 	movi	r3,1
    2db0:	10c00915 	stw	r3,36(r2)
}
    2db4:	0001883a 	nop
    2db8:	e037883a 	mov	sp,fp
    2dbc:	df000017 	ldw	fp,0(sp)
    2dc0:	dec00104 	addi	sp,sp,4
    2dc4:	f800283a 	ret

00002dc8 <unHalt>:

void unHalt(CPU* cpu) {
    2dc8:	defffe04 	addi	sp,sp,-8
    2dcc:	df000115 	stw	fp,4(sp)
    2dd0:	df000104 	addi	fp,sp,4
    2dd4:	e13fff15 	stw	r4,-4(fp)
	cpu->is_halted = false;
    2dd8:	e0bfff17 	ldw	r2,-4(fp)
    2ddc:	10000915 	stw	zero,36(r2)
}
    2de0:	0001883a 	nop
    2de4:	e037883a 	mov	sp,fp
    2de8:	df000017 	ldw	fp,0(sp)
    2dec:	dec00104 	addi	sp,sp,4
    2df0:	f800283a 	ret

00002df4 <pause>:

void pause(CPU* cpu) {
    2df4:	defffe04 	addi	sp,sp,-8
    2df8:	df000115 	stw	fp,4(sp)
    2dfc:	df000104 	addi	fp,sp,4
    2e00:	e13fff15 	stw	r4,-4(fp)
	cpu->is_paused = true;
    2e04:	e0bfff17 	ldw	r2,-4(fp)
    2e08:	00c00044 	movi	r3,1
    2e0c:	10c00a15 	stw	r3,40(r2)
}
    2e10:	0001883a 	nop
    2e14:	e037883a 	mov	sp,fp
    2e18:	df000017 	ldw	fp,0(sp)
    2e1c:	dec00104 	addi	sp,sp,4
    2e20:	f800283a 	ret

00002e24 <unPause>:

void unPause(CPU* cpu) {
    2e24:	defffd04 	addi	sp,sp,-12
    2e28:	dfc00215 	stw	ra,8(sp)
    2e2c:	df000115 	stw	fp,4(sp)
    2e30:	df000104 	addi	fp,sp,4
    2e34:	e13fff15 	stw	r4,-4(fp)
	if(cpu->is_paused == true) {
    2e38:	e0bfff17 	ldw	r2,-4(fp)
    2e3c:	10800a17 	ldw	r2,40(r2)
    2e40:	10800058 	cmpnei	r2,r2,1
    2e44:	1000041e 	bne	r2,zero,2e58 <unPause+0x34>
		cpu->is_paused = false;
    2e48:	e0bfff17 	ldw	r2,-4(fp)
    2e4c:	10000a15 	stw	zero,40(r2)
		fetch(cpu);
    2e50:	e13fff17 	ldw	r4,-4(fp)
    2e54:	00027200 	call	2720 <fetch>
	}
}
    2e58:	0001883a 	nop
    2e5c:	e037883a 	mov	sp,fp
    2e60:	dfc00117 	ldw	ra,4(sp)
    2e64:	df000017 	ldw	fp,0(sp)
    2e68:	dec00204 	addi	sp,sp,8
    2e6c:	f800283a 	ret

00002e70 <i0>:

void RSTn(CPU* cpu, word n);

void i0(CPU* cpu){RSTn(cpu, 0x40);}
    2e70:	defffd04 	addi	sp,sp,-12
    2e74:	dfc00215 	stw	ra,8(sp)
    2e78:	df000115 	stw	fp,4(sp)
    2e7c:	df000104 	addi	fp,sp,4
    2e80:	e13fff15 	stw	r4,-4(fp)
    2e84:	01401004 	movi	r5,64
    2e88:	e13fff17 	ldw	r4,-4(fp)
    2e8c:	000758c0 	call	758c <RSTn>
    2e90:	0001883a 	nop
    2e94:	e037883a 	mov	sp,fp
    2e98:	dfc00117 	ldw	ra,4(sp)
    2e9c:	df000017 	ldw	fp,0(sp)
    2ea0:	dec00204 	addi	sp,sp,8
    2ea4:	f800283a 	ret

00002ea8 <i1>:
void i1(CPU* cpu){RSTn(cpu, 0x48);}
    2ea8:	defffd04 	addi	sp,sp,-12
    2eac:	dfc00215 	stw	ra,8(sp)
    2eb0:	df000115 	stw	fp,4(sp)
    2eb4:	df000104 	addi	fp,sp,4
    2eb8:	e13fff15 	stw	r4,-4(fp)
    2ebc:	01401204 	movi	r5,72
    2ec0:	e13fff17 	ldw	r4,-4(fp)
    2ec4:	000758c0 	call	758c <RSTn>
    2ec8:	0001883a 	nop
    2ecc:	e037883a 	mov	sp,fp
    2ed0:	dfc00117 	ldw	ra,4(sp)
    2ed4:	df000017 	ldw	fp,0(sp)
    2ed8:	dec00204 	addi	sp,sp,8
    2edc:	f800283a 	ret

00002ee0 <i2>:
void i2(CPU* cpu){RSTn(cpu, 0x50);}
    2ee0:	defffd04 	addi	sp,sp,-12
    2ee4:	dfc00215 	stw	ra,8(sp)
    2ee8:	df000115 	stw	fp,4(sp)
    2eec:	df000104 	addi	fp,sp,4
    2ef0:	e13fff15 	stw	r4,-4(fp)
    2ef4:	01401404 	movi	r5,80
    2ef8:	e13fff17 	ldw	r4,-4(fp)
    2efc:	000758c0 	call	758c <RSTn>
    2f00:	0001883a 	nop
    2f04:	e037883a 	mov	sp,fp
    2f08:	dfc00117 	ldw	ra,4(sp)
    2f0c:	df000017 	ldw	fp,0(sp)
    2f10:	dec00204 	addi	sp,sp,8
    2f14:	f800283a 	ret

00002f18 <i3>:
void i3(CPU* cpu){RSTn(cpu, 0x58);}
    2f18:	defffd04 	addi	sp,sp,-12
    2f1c:	dfc00215 	stw	ra,8(sp)
    2f20:	df000115 	stw	fp,4(sp)
    2f24:	df000104 	addi	fp,sp,4
    2f28:	e13fff15 	stw	r4,-4(fp)
    2f2c:	01401604 	movi	r5,88
    2f30:	e13fff17 	ldw	r4,-4(fp)
    2f34:	000758c0 	call	758c <RSTn>
    2f38:	0001883a 	nop
    2f3c:	e037883a 	mov	sp,fp
    2f40:	dfc00117 	ldw	ra,4(sp)
    2f44:	df000017 	ldw	fp,0(sp)
    2f48:	dec00204 	addi	sp,sp,8
    2f4c:	f800283a 	ret

00002f50 <i4>:
void i4(CPU* cpu){RSTn(cpu, 0x60);}
    2f50:	defffd04 	addi	sp,sp,-12
    2f54:	dfc00215 	stw	ra,8(sp)
    2f58:	df000115 	stw	fp,4(sp)
    2f5c:	df000104 	addi	fp,sp,4
    2f60:	e13fff15 	stw	r4,-4(fp)
    2f64:	01401804 	movi	r5,96
    2f68:	e13fff17 	ldw	r4,-4(fp)
    2f6c:	000758c0 	call	758c <RSTn>
    2f70:	0001883a 	nop
    2f74:	e037883a 	mov	sp,fp
    2f78:	dfc00117 	ldw	ra,4(sp)
    2f7c:	df000017 	ldw	fp,0(sp)
    2f80:	dec00204 	addi	sp,sp,8
    2f84:	f800283a 	ret

00002f88 <checkInterrupt>:


bool isInterruptEnable(interupt_name index);
void disableInterrupts(CPU* cpu);
void checkInterrupt(CPU* cpu) {
    2f88:	defffb04 	addi	sp,sp,-20
    2f8c:	dfc00415 	stw	ra,16(sp)
    2f90:	df000315 	stw	fp,12(sp)
    2f94:	df000304 	addi	fp,sp,12
    2f98:	e13fff15 	stw	r4,-4(fp)
	if(cpu->IME_flag == false) return;
    2f9c:	e0bfff17 	ldw	r2,-4(fp)
    2fa0:	10800817 	ldw	r2,32(r2)
    2fa4:	10004a26 	beq	r2,zero,30d0 <checkInterrupt+0x148>

	for(unsigned i = 0; i < 5; i++) {
    2fa8:	e03ffd15 	stw	zero,-12(fp)
    2fac:	00004406 	br	30c0 <checkInterrupt+0x138>
		byte IFval = readData(0xFF0F);
    2fb0:	013fc3d4 	movui	r4,65295
    2fb4:	000026c0 	call	26c <readData>
    2fb8:	e0bffe05 	stb	r2,-8(fp)

		if (((IFval >> i) & 1) && isInterruptEnable(i)) {
    2fbc:	e0fffe03 	ldbu	r3,-8(fp)
    2fc0:	e0bffd17 	ldw	r2,-12(fp)
    2fc4:	1885d83a 	sra	r2,r3,r2
    2fc8:	1080004c 	andi	r2,r2,1
    2fcc:	10003926 	beq	r2,zero,30b4 <checkInterrupt+0x12c>
    2fd0:	e13ffd17 	ldw	r4,-12(fp)
    2fd4:	00031540 	call	3154 <isInterruptEnable>
    2fd8:	10003626 	beq	r2,zero,30b4 <checkInterrupt+0x12c>
			IFval &= (0xFF - (1<<i));
    2fdc:	00c00044 	movi	r3,1
    2fe0:	e0bffd17 	ldw	r2,-12(fp)
    2fe4:	1884983a 	sll	r2,r3,r2
    2fe8:	0084303a 	nor	r2,zero,r2
    2fec:	1007883a 	mov	r3,r2
    2ff0:	e0bffe03 	ldbu	r2,-8(fp)
    2ff4:	1884703a 	and	r2,r3,r2
    2ff8:	e0bffe05 	stb	r2,-8(fp)
			writeData(0xFF0F, IFval);
    2ffc:	e0bffe03 	ldbu	r2,-8(fp)
    3000:	100b883a 	mov	r5,r2
    3004:	013fc3d4 	movui	r4,65295
    3008:	00003640 	call	364 <writeData>
			disableInterrupts(cpu);
    300c:	e13fff17 	ldw	r4,-4(fp)
    3010:	00031d40 	call	31d4 <disableInterrupts>
			cpu->clock.c += 4;
    3014:	e0bfff17 	ldw	r2,-4(fp)
    3018:	10800017 	ldw	r2,0(r2)
    301c:	10c00104 	addi	r3,r2,4
    3020:	e0bfff17 	ldw	r2,-4(fp)
    3024:	10c00015 	stw	r3,0(r2)
			printf("INTERUPT!! %d\n", i);
    3028:	e17ffd17 	ldw	r5,-12(fp)
    302c:	010000b4 	movhi	r4,2
    3030:	2130ec04 	addi	r4,r4,-15440
    3034:	000cf8c0 	call	cf8c <printf>
			switch(i){
    3038:	e0bffd17 	ldw	r2,-12(fp)
    303c:	10800168 	cmpgeui	r2,r2,5
    3040:	1000251e 	bne	r2,zero,30d8 <checkInterrupt+0x150>
    3044:	e0bffd17 	ldw	r2,-12(fp)
    3048:	100690ba 	slli	r3,r2,2
    304c:	00800034 	movhi	r2,0
    3050:	108c1804 	addi	r2,r2,12384
    3054:	1885883a 	add	r2,r3,r2
    3058:	10800017 	ldw	r2,0(r2)
    305c:	1000683a 	jmp	r2
    3060:	00003074 	movhi	zero,193
    3064:	00003080 	call	308 <dmaTransfer+0x60>
    3068:	0000308c 	andi	zero,zero,194
    306c:	00003098 	cmpnei	zero,zero,194
    3070:	000030a4 	muli	zero,zero,194
			case 0:
				i0(cpu);
    3074:	e13fff17 	ldw	r4,-4(fp)
    3078:	0002e700 	call	2e70 <i0>
				break;
    307c:	00000c06 	br	30b0 <checkInterrupt+0x128>
			case 1:
				i1(cpu);
    3080:	e13fff17 	ldw	r4,-4(fp)
    3084:	0002ea80 	call	2ea8 <i1>
				break;
    3088:	00000906 	br	30b0 <checkInterrupt+0x128>
			case 2:
				i2(cpu);
    308c:	e13fff17 	ldw	r4,-4(fp)
    3090:	0002ee00 	call	2ee0 <i2>
				break;
    3094:	00000606 	br	30b0 <checkInterrupt+0x128>
			case 3:
				i3(cpu);
    3098:	e13fff17 	ldw	r4,-4(fp)
    309c:	0002f180 	call	2f18 <i3>
				break;
    30a0:	00000306 	br	30b0 <checkInterrupt+0x128>
			case 4:
				i4(cpu);
    30a4:	e13fff17 	ldw	r4,-4(fp)
    30a8:	0002f500 	call	2f50 <i4>
				break;
    30ac:	0001883a 	nop
			}
			break;
    30b0:	00000906 	br	30d8 <checkInterrupt+0x150>
bool isInterruptEnable(interupt_name index);
void disableInterrupts(CPU* cpu);
void checkInterrupt(CPU* cpu) {
	if(cpu->IME_flag == false) return;

	for(unsigned i = 0; i < 5; i++) {
    30b4:	e0bffd17 	ldw	r2,-12(fp)
    30b8:	10800044 	addi	r2,r2,1
    30bc:	e0bffd15 	stw	r2,-12(fp)
    30c0:	e0bffd17 	ldw	r2,-12(fp)
    30c4:	10800170 	cmpltui	r2,r2,5
    30c8:	103fb91e 	bne	r2,zero,2fb0 <__alt_data_end+0xfc002fb0>
    30cc:	00000306 	br	30dc <checkInterrupt+0x154>


bool isInterruptEnable(interupt_name index);
void disableInterrupts(CPU* cpu);
void checkInterrupt(CPU* cpu) {
	if(cpu->IME_flag == false) return;
    30d0:	0001883a 	nop
    30d4:	00000106 	br	30dc <checkInterrupt+0x154>
				break;
			case 4:
				i4(cpu);
				break;
			}
			break;
    30d8:	0001883a 	nop
		}
	}
}
    30dc:	e037883a 	mov	sp,fp
    30e0:	dfc00117 	ldw	ra,4(sp)
    30e4:	df000017 	ldw	fp,0(sp)
    30e8:	dec00204 	addi	sp,sp,8
    30ec:	f800283a 	ret

000030f0 <requestInterrupt>:

void requestInterrupt(interupt_name index) {
    30f0:	defffc04 	addi	sp,sp,-16
    30f4:	dfc00315 	stw	ra,12(sp)
    30f8:	df000215 	stw	fp,8(sp)
    30fc:	df000204 	addi	fp,sp,8
    3100:	e13fff15 	stw	r4,-4(fp)
	byte IFval = readData(0xFF0F);
    3104:	013fc3d4 	movui	r4,65295
    3108:	000026c0 	call	26c <readData>
    310c:	e0bffe05 	stb	r2,-8(fp)
	IFval |= (1 << index);
    3110:	00c00044 	movi	r3,1
    3114:	e0bfff17 	ldw	r2,-4(fp)
    3118:	1884983a 	sll	r2,r3,r2
    311c:	1007883a 	mov	r3,r2
    3120:	e0bffe03 	ldbu	r2,-8(fp)
    3124:	1884b03a 	or	r2,r3,r2
    3128:	e0bffe05 	stb	r2,-8(fp)
	writeData(0xFF0F, IFval);
    312c:	e0bffe03 	ldbu	r2,-8(fp)
    3130:	100b883a 	mov	r5,r2
    3134:	013fc3d4 	movui	r4,65295
    3138:	00003640 	call	364 <writeData>
//	unHalt();
}
    313c:	0001883a 	nop
    3140:	e037883a 	mov	sp,fp
    3144:	dfc00117 	ldw	ra,4(sp)
    3148:	df000017 	ldw	fp,0(sp)
    314c:	dec00204 	addi	sp,sp,8
    3150:	f800283a 	ret

00003154 <isInterruptEnable>:

bool isInterruptEnable(interupt_name index) {
    3154:	defffd04 	addi	sp,sp,-12
    3158:	dfc00215 	stw	ra,8(sp)
    315c:	df000115 	stw	fp,4(sp)
    3160:	df000104 	addi	fp,sp,4
    3164:	e13fff15 	stw	r4,-4(fp)
	if ((readData(0xFFFF) >> index & 1) != 0) {
    3168:	013fffd4 	movui	r4,65535
    316c:	000026c0 	call	26c <readData>
    3170:	10c03fcc 	andi	r3,r2,255
    3174:	e0bfff17 	ldw	r2,-4(fp)
    3178:	1885d83a 	sra	r2,r3,r2
    317c:	1080004c 	andi	r2,r2,1
    3180:	10000226 	beq	r2,zero,318c <isInterruptEnable+0x38>
		return true;
    3184:	00800044 	movi	r2,1
    3188:	00000106 	br	3190 <isInterruptEnable+0x3c>
	}
	else {
		return false;
    318c:	0005883a 	mov	r2,zero
	}
}
    3190:	e037883a 	mov	sp,fp
    3194:	dfc00117 	ldw	ra,4(sp)
    3198:	df000017 	ldw	fp,0(sp)
    319c:	dec00204 	addi	sp,sp,8
    31a0:	f800283a 	ret

000031a4 <enableInterrupts>:

void enableInterrupts(CPU* cpu) {
    31a4:	defffe04 	addi	sp,sp,-8
    31a8:	df000115 	stw	fp,4(sp)
    31ac:	df000104 	addi	fp,sp,4
    31b0:	e13fff15 	stw	r4,-4(fp)
	cpu->IME_flag = true;
    31b4:	e0bfff17 	ldw	r2,-4(fp)
    31b8:	00c00044 	movi	r3,1
    31bc:	10c00815 	stw	r3,32(r2)
}
    31c0:	0001883a 	nop
    31c4:	e037883a 	mov	sp,fp
    31c8:	df000017 	ldw	fp,0(sp)
    31cc:	dec00104 	addi	sp,sp,4
    31d0:	f800283a 	ret

000031d4 <disableInterrupts>:

void disableInterrupts(CPU* cpu) {
    31d4:	defffe04 	addi	sp,sp,-8
    31d8:	df000115 	stw	fp,4(sp)
    31dc:	df000104 	addi	fp,sp,4
    31e0:	e13fff15 	stw	r4,-4(fp)
	cpu->IME_flag = false;
    31e4:	e0bfff17 	ldw	r2,-4(fp)
    31e8:	10000815 	stw	zero,32(r2)
}
    31ec:	0001883a 	nop
    31f0:	e037883a 	mov	sp,fp
    31f4:	df000017 	ldw	fp,0(sp)
    31f8:	dec00104 	addi	sp,sp,4
    31fc:	f800283a 	ret

00003200 <readAddr>:

//End CPU
//Start Instructions
word readAddr(CPU* cpu, reg_name r1, reg_name r2) {
    3200:	defffa04 	addi	sp,sp,-24
    3204:	dfc00515 	stw	ra,20(sp)
    3208:	df000415 	stw	fp,16(sp)
    320c:	df000404 	addi	fp,sp,16
    3210:	e13ffd15 	stw	r4,-12(fp)
    3214:	e17ffe15 	stw	r5,-8(fp)
    3218:	e1bfff15 	stw	r6,-4(fp)
	word out = 0x0000;
    321c:	e03ffc0d 	sth	zero,-16(fp)
	out += rr8(cpu, r1);
    3220:	e17ffe17 	ldw	r5,-8(fp)
    3224:	e13ffd17 	ldw	r4,-12(fp)
    3228:	00029180 	call	2918 <rr8>
    322c:	10c03fcc 	andi	r3,r2,255
    3230:	e0bffc0b 	ldhu	r2,-16(fp)
    3234:	1885883a 	add	r2,r3,r2
    3238:	e0bffc0d 	sth	r2,-16(fp)
	out = out << 8;
    323c:	e0bffc0b 	ldhu	r2,-16(fp)
    3240:	1004923a 	slli	r2,r2,8
    3244:	e0bffc0d 	sth	r2,-16(fp)
	out += rr8(cpu, r2);
    3248:	e17fff17 	ldw	r5,-4(fp)
    324c:	e13ffd17 	ldw	r4,-12(fp)
    3250:	00029180 	call	2918 <rr8>
    3254:	10c03fcc 	andi	r3,r2,255
    3258:	e0bffc0b 	ldhu	r2,-16(fp)
    325c:	1885883a 	add	r2,r3,r2
    3260:	e0bffc0d 	sth	r2,-16(fp)
	return out;
    3264:	e0bffc0b 	ldhu	r2,-16(fp)
}
    3268:	e037883a 	mov	sp,fp
    326c:	dfc00117 	ldw	ra,4(sp)
    3270:	df000017 	ldw	fp,0(sp)
    3274:	dec00204 	addi	sp,sp,8
    3278:	f800283a 	ret

0000327c <getSignedValue>:
int getSignedValue(byte v) {
    327c:	defffd04 	addi	sp,sp,-12
    3280:	df000215 	stw	fp,8(sp)
    3284:	df000204 	addi	fp,sp,8
    3288:	2005883a 	mov	r2,r4
    328c:	e0bfff05 	stb	r2,-4(fp)
	int val = 0;
    3290:	e03ffe15 	stw	zero,-8(fp)
	if(v & 0x80) {
    3294:	e0bfff03 	ldbu	r2,-4(fp)
    3298:	10803fcc 	andi	r2,r2,255
    329c:	1080201c 	xori	r2,r2,128
    32a0:	10bfe004 	addi	r2,r2,-128
    32a4:	1000080e 	bge	r2,zero,32c8 <getSignedValue+0x4c>
//		printf("If\n");
		val += v;
    32a8:	e0bfff03 	ldbu	r2,-4(fp)
    32ac:	e0fffe17 	ldw	r3,-8(fp)
    32b0:	1885883a 	add	r2,r3,r2
    32b4:	e0bffe15 	stw	r2,-8(fp)
		val -= 256;
    32b8:	e0bffe17 	ldw	r2,-8(fp)
    32bc:	10bfc004 	addi	r2,r2,-256
    32c0:	e0bffe15 	stw	r2,-8(fp)
    32c4:	00000406 	br	32d8 <getSignedValue+0x5c>
	}else {
//		printf("Else\n");
		val += v;
    32c8:	e0bfff03 	ldbu	r2,-4(fp)
    32cc:	e0fffe17 	ldw	r3,-8(fp)
    32d0:	1885883a 	add	r2,r3,r2
    32d4:	e0bffe15 	stw	r2,-8(fp)
	}
	return val;
    32d8:	e0bffe17 	ldw	r2,-8(fp)
}
    32dc:	e037883a 	mov	sp,fp
    32e0:	df000017 	ldw	fp,0(sp)
    32e4:	dec00104 	addi	sp,sp,4
    32e8:	f800283a 	ret

000032ec <LDrrnn>:
void _LDav(CPU* cpu, word addr, byte val);
void LDrrnn(CPU* cpu, reg_name r1, reg_name r2) {
    32ec:	defffb04 	addi	sp,sp,-20
    32f0:	dfc00415 	stw	ra,16(sp)
    32f4:	df000315 	stw	fp,12(sp)
    32f8:	df000304 	addi	fp,sp,12
    32fc:	e13ffd15 	stw	r4,-12(fp)
    3300:	e17ffe15 	stw	r5,-8(fp)
    3304:	e1bfff15 	stw	r6,-4(fp)
	wr8(cpu, r2, readData(cpu->registers.pc));
    3308:	e0bffd17 	ldw	r2,-12(fp)
    330c:	1080040b 	ldhu	r2,16(r2)
    3310:	10bfffcc 	andi	r2,r2,65535
    3314:	1009883a 	mov	r4,r2
    3318:	000026c0 	call	26c <readData>
    331c:	10803fcc 	andi	r2,r2,255
    3320:	100d883a 	mov	r6,r2
    3324:	e17fff17 	ldw	r5,-4(fp)
    3328:	e13ffd17 	ldw	r4,-12(fp)
    332c:	0002b7c0 	call	2b7c <wr8>
	wr8(cpu, r1, readData(cpu->registers.pc + 1));
    3330:	e0bffd17 	ldw	r2,-12(fp)
    3334:	1080040b 	ldhu	r2,16(r2)
    3338:	10800044 	addi	r2,r2,1
    333c:	10bfffcc 	andi	r2,r2,65535
    3340:	1009883a 	mov	r4,r2
    3344:	000026c0 	call	26c <readData>
    3348:	10803fcc 	andi	r2,r2,255
    334c:	100d883a 	mov	r6,r2
    3350:	e17ffe17 	ldw	r5,-8(fp)
    3354:	e13ffd17 	ldw	r4,-12(fp)
    3358:	0002b7c0 	call	2b7c <wr8>
	cpu->registers.pc += 2;
    335c:	e0bffd17 	ldw	r2,-12(fp)
    3360:	1080040b 	ldhu	r2,16(r2)
    3364:	10800084 	addi	r2,r2,2
    3368:	1007883a 	mov	r3,r2
    336c:	e0bffd17 	ldw	r2,-12(fp)
    3370:	10c0040d 	sth	r3,16(r2)
	cpu->clock.c += 12;
    3374:	e0bffd17 	ldw	r2,-12(fp)
    3378:	10800017 	ldw	r2,0(r2)
    337c:	10c00304 	addi	r3,r2,12
    3380:	e0bffd17 	ldw	r2,-12(fp)
    3384:	10c00015 	stw	r3,0(r2)
}
    3388:	0001883a 	nop
    338c:	e037883a 	mov	sp,fp
    3390:	dfc00117 	ldw	ra,4(sp)
    3394:	df000017 	ldw	fp,0(sp)
    3398:	dec00204 	addi	sp,sp,8
    339c:	f800283a 	ret

000033a0 <LDrrar>:
void LDrrar(CPU* cpu, reg_name r1, reg_name r2, reg_name r3) {
    33a0:	defff904 	addi	sp,sp,-28
    33a4:	dfc00615 	stw	ra,24(sp)
    33a8:	df000515 	stw	fp,20(sp)
    33ac:	dc000415 	stw	r16,16(sp)
    33b0:	df000504 	addi	fp,sp,20
    33b4:	e13ffb15 	stw	r4,-20(fp)
    33b8:	e17ffc15 	stw	r5,-16(fp)
    33bc:	e1bffd15 	stw	r6,-12(fp)
    33c0:	e1fffe15 	stw	r7,-8(fp)
	_LDav(cpu, readAddr(cpu, r1, r2), rr8(cpu, r3));
    33c4:	e1bffd17 	ldw	r6,-12(fp)
    33c8:	e17ffc17 	ldw	r5,-16(fp)
    33cc:	e13ffb17 	ldw	r4,-20(fp)
    33d0:	00032000 	call	3200 <readAddr>
    33d4:	143fffcc 	andi	r16,r2,65535
    33d8:	e17ffe17 	ldw	r5,-8(fp)
    33dc:	e13ffb17 	ldw	r4,-20(fp)
    33e0:	00029180 	call	2918 <rr8>
    33e4:	10803fcc 	andi	r2,r2,255
    33e8:	100d883a 	mov	r6,r2
    33ec:	800b883a 	mov	r5,r16
    33f0:	e13ffb17 	ldw	r4,-20(fp)
    33f4:	0003c680 	call	3c68 <_LDav>
	cpu->clock.c += 8;
    33f8:	e0bffb17 	ldw	r2,-20(fp)
    33fc:	10800017 	ldw	r2,0(r2)
    3400:	10c00204 	addi	r3,r2,8
    3404:	e0bffb17 	ldw	r2,-20(fp)
    3408:	10c00015 	stw	r3,0(r2)
}
    340c:	0001883a 	nop
    3410:	e6ffff04 	addi	sp,fp,-4
    3414:	dfc00217 	ldw	ra,8(sp)
    3418:	df000117 	ldw	fp,4(sp)
    341c:	dc000017 	ldw	r16,0(sp)
    3420:	dec00304 	addi	sp,sp,12
    3424:	f800283a 	ret

00003428 <LDrrra>:
void LDrrra(CPU* cpu, reg_name r1, reg_name r2, reg_name r3) {
    3428:	defffa04 	addi	sp,sp,-24
    342c:	dfc00515 	stw	ra,20(sp)
    3430:	df000415 	stw	fp,16(sp)
    3434:	df000404 	addi	fp,sp,16
    3438:	e13ffc15 	stw	r4,-16(fp)
    343c:	e17ffd15 	stw	r5,-12(fp)
    3440:	e1bffe15 	stw	r6,-8(fp)
    3444:	e1ffff15 	stw	r7,-4(fp)
	wr8(cpu, r1, readData(readAddr(cpu, r2, r3)));
    3448:	e1bfff17 	ldw	r6,-4(fp)
    344c:	e17ffe17 	ldw	r5,-8(fp)
    3450:	e13ffc17 	ldw	r4,-16(fp)
    3454:	00032000 	call	3200 <readAddr>
    3458:	10bfffcc 	andi	r2,r2,65535
    345c:	1009883a 	mov	r4,r2
    3460:	000026c0 	call	26c <readData>
    3464:	10803fcc 	andi	r2,r2,255
    3468:	100d883a 	mov	r6,r2
    346c:	e17ffd17 	ldw	r5,-12(fp)
    3470:	e13ffc17 	ldw	r4,-16(fp)
    3474:	0002b7c0 	call	2b7c <wr8>
	cpu->clock.c += 8;
    3478:	e0bffc17 	ldw	r2,-16(fp)
    347c:	10800017 	ldw	r2,0(r2)
    3480:	10c00204 	addi	r3,r2,8
    3484:	e0bffc17 	ldw	r2,-16(fp)
    3488:	10c00015 	stw	r3,0(r2)
}
    348c:	0001883a 	nop
    3490:	e037883a 	mov	sp,fp
    3494:	dfc00117 	ldw	ra,4(sp)
    3498:	df000017 	ldw	fp,0(sp)
    349c:	dec00204 	addi	sp,sp,8
    34a0:	f800283a 	ret

000034a4 <LDrn>:
void LDrn(CPU* cpu, reg_name r1){
    34a4:	defffc04 	addi	sp,sp,-16
    34a8:	dfc00315 	stw	ra,12(sp)
    34ac:	df000215 	stw	fp,8(sp)
    34b0:	df000204 	addi	fp,sp,8
    34b4:	e13ffe15 	stw	r4,-8(fp)
    34b8:	e17fff15 	stw	r5,-4(fp)
	wr8(cpu, r1, readData(cpu->registers.pc++));
    34bc:	e0bffe17 	ldw	r2,-8(fp)
    34c0:	1080040b 	ldhu	r2,16(r2)
    34c4:	10c00044 	addi	r3,r2,1
    34c8:	1809883a 	mov	r4,r3
    34cc:	e0fffe17 	ldw	r3,-8(fp)
    34d0:	1900040d 	sth	r4,16(r3)
    34d4:	10bfffcc 	andi	r2,r2,65535
    34d8:	1009883a 	mov	r4,r2
    34dc:	000026c0 	call	26c <readData>
    34e0:	10803fcc 	andi	r2,r2,255
    34e4:	100d883a 	mov	r6,r2
    34e8:	e17fff17 	ldw	r5,-4(fp)
    34ec:	e13ffe17 	ldw	r4,-8(fp)
    34f0:	0002b7c0 	call	2b7c <wr8>
	cpu->clock.c += 8;
    34f4:	e0bffe17 	ldw	r2,-8(fp)
    34f8:	10800017 	ldw	r2,0(r2)
    34fc:	10c00204 	addi	r3,r2,8
    3500:	e0bffe17 	ldw	r2,-8(fp)
    3504:	10c00015 	stw	r3,0(r2)
}
    3508:	0001883a 	nop
    350c:	e037883a 	mov	sp,fp
    3510:	dfc00117 	ldw	ra,4(sp)
    3514:	df000017 	ldw	fp,0(sp)
    3518:	dec00204 	addi	sp,sp,8
    351c:	f800283a 	ret

00003520 <LDrr>:
void LDrr(CPU* cpu, reg_name r1, reg_name r2) {
    3520:	defffb04 	addi	sp,sp,-20
    3524:	dfc00415 	stw	ra,16(sp)
    3528:	df000315 	stw	fp,12(sp)
    352c:	df000304 	addi	fp,sp,12
    3530:	e13ffd15 	stw	r4,-12(fp)
    3534:	e17ffe15 	stw	r5,-8(fp)
    3538:	e1bfff15 	stw	r6,-4(fp)
	wr8(cpu, r1, rr8(cpu, r2));
    353c:	e17fff17 	ldw	r5,-4(fp)
    3540:	e13ffd17 	ldw	r4,-12(fp)
    3544:	00029180 	call	2918 <rr8>
    3548:	10803fcc 	andi	r2,r2,255
    354c:	100d883a 	mov	r6,r2
    3550:	e17ffe17 	ldw	r5,-8(fp)
    3554:	e13ffd17 	ldw	r4,-12(fp)
    3558:	0002b7c0 	call	2b7c <wr8>
	cpu->clock.c += 4;
    355c:	e0bffd17 	ldw	r2,-12(fp)
    3560:	10800017 	ldw	r2,0(r2)
    3564:	10c00104 	addi	r3,r2,4
    3568:	e0bffd17 	ldw	r2,-12(fp)
    356c:	10c00015 	stw	r3,0(r2)
}
    3570:	0001883a 	nop
    3574:	e037883a 	mov	sp,fp
    3578:	dfc00117 	ldw	ra,4(sp)
    357c:	df000017 	ldw	fp,0(sp)
    3580:	dec00204 	addi	sp,sp,8
    3584:	f800283a 	ret

00003588 <LDrar>:
void LDrar(CPU* cpu, reg_name r1, reg_name r2) {
    3588:	defffa04 	addi	sp,sp,-24
    358c:	dfc00515 	stw	ra,20(sp)
    3590:	df000415 	stw	fp,16(sp)
    3594:	dc000315 	stw	r16,12(sp)
    3598:	df000404 	addi	fp,sp,16
    359c:	e13ffc15 	stw	r4,-16(fp)
    35a0:	e17ffd15 	stw	r5,-12(fp)
    35a4:	e1bffe15 	stw	r6,-8(fp)
	writeData(0xFF00 + rr8(cpu, r1), rr8(cpu, r2));
    35a8:	e17ffd17 	ldw	r5,-12(fp)
    35ac:	e13ffc17 	ldw	r4,-16(fp)
    35b0:	00029180 	call	2918 <rr8>
    35b4:	10803fcc 	andi	r2,r2,255
    35b8:	10bfc004 	addi	r2,r2,-256
    35bc:	143fffcc 	andi	r16,r2,65535
    35c0:	e17ffe17 	ldw	r5,-8(fp)
    35c4:	e13ffc17 	ldw	r4,-16(fp)
    35c8:	00029180 	call	2918 <rr8>
    35cc:	10803fcc 	andi	r2,r2,255
    35d0:	100b883a 	mov	r5,r2
    35d4:	8009883a 	mov	r4,r16
    35d8:	00003640 	call	364 <writeData>
	cpu->clock.c += 8;
    35dc:	e0bffc17 	ldw	r2,-16(fp)
    35e0:	10800017 	ldw	r2,0(r2)
    35e4:	10c00204 	addi	r3,r2,8
    35e8:	e0bffc17 	ldw	r2,-16(fp)
    35ec:	10c00015 	stw	r3,0(r2)
}
    35f0:	0001883a 	nop
    35f4:	e6ffff04 	addi	sp,fp,-4
    35f8:	dfc00217 	ldw	ra,8(sp)
    35fc:	df000117 	ldw	fp,4(sp)
    3600:	dc000017 	ldw	r16,0(sp)
    3604:	dec00304 	addi	sp,sp,12
    3608:	f800283a 	ret

0000360c <LDrra>:
void LDrra(CPU* cpu, reg_name r1, reg_name r2) {
    360c:	defffb04 	addi	sp,sp,-20
    3610:	dfc00415 	stw	ra,16(sp)
    3614:	df000315 	stw	fp,12(sp)
    3618:	df000304 	addi	fp,sp,12
    361c:	e13ffd15 	stw	r4,-12(fp)
    3620:	e17ffe15 	stw	r5,-8(fp)
    3624:	e1bfff15 	stw	r6,-4(fp)
	wr8(cpu, r1, readData(0xFF00 + rr8(cpu, r2)));
    3628:	e17fff17 	ldw	r5,-4(fp)
    362c:	e13ffd17 	ldw	r4,-12(fp)
    3630:	00029180 	call	2918 <rr8>
    3634:	10803fcc 	andi	r2,r2,255
    3638:	10bfc004 	addi	r2,r2,-256
    363c:	10bfffcc 	andi	r2,r2,65535
    3640:	1009883a 	mov	r4,r2
    3644:	000026c0 	call	26c <readData>
    3648:	10803fcc 	andi	r2,r2,255
    364c:	100d883a 	mov	r6,r2
    3650:	e17ffe17 	ldw	r5,-8(fp)
    3654:	e13ffd17 	ldw	r4,-12(fp)
    3658:	0002b7c0 	call	2b7c <wr8>
	cpu->clock.c += 8;
    365c:	e0bffd17 	ldw	r2,-12(fp)
    3660:	10800017 	ldw	r2,0(r2)
    3664:	10c00204 	addi	r3,r2,8
    3668:	e0bffd17 	ldw	r2,-12(fp)
    366c:	10c00015 	stw	r3,0(r2)
}
    3670:	0001883a 	nop
    3674:	e037883a 	mov	sp,fp
    3678:	dfc00117 	ldw	ra,4(sp)
    367c:	df000017 	ldw	fp,0(sp)
    3680:	dec00204 	addi	sp,sp,8
    3684:	f800283a 	ret

00003688 <LDspnn>:
void LDspnn(CPU* cpu) {
    3688:	defffc04 	addi	sp,sp,-16
    368c:	dfc00315 	stw	ra,12(sp)
    3690:	df000215 	stw	fp,8(sp)
    3694:	dc000115 	stw	r16,4(sp)
    3698:	df000204 	addi	fp,sp,8
    369c:	e13ffe15 	stw	r4,-8(fp)
	wr16(cpu, SP, 0x0000 + readData((cpu->registers.pc + 1) << 8) + readData(cpu->registers.pc));
    36a0:	e0bffe17 	ldw	r2,-8(fp)
    36a4:	1080040b 	ldhu	r2,16(r2)
    36a8:	10800044 	addi	r2,r2,1
    36ac:	1004923a 	slli	r2,r2,8
    36b0:	10bfffcc 	andi	r2,r2,65535
    36b4:	1009883a 	mov	r4,r2
    36b8:	000026c0 	call	26c <readData>
    36bc:	14003fcc 	andi	r16,r2,255
    36c0:	e0bffe17 	ldw	r2,-8(fp)
    36c4:	1080040b 	ldhu	r2,16(r2)
    36c8:	10bfffcc 	andi	r2,r2,65535
    36cc:	1009883a 	mov	r4,r2
    36d0:	000026c0 	call	26c <readData>
    36d4:	10803fcc 	andi	r2,r2,255
    36d8:	8085883a 	add	r2,r16,r2
    36dc:	10bfffcc 	andi	r2,r2,65535
    36e0:	100d883a 	mov	r6,r2
    36e4:	01400304 	movi	r5,12
    36e8:	e13ffe17 	ldw	r4,-8(fp)
    36ec:	0002c780 	call	2c78 <wr16>
	cpu->registers.pc += 2;
    36f0:	e0bffe17 	ldw	r2,-8(fp)
    36f4:	1080040b 	ldhu	r2,16(r2)
    36f8:	10800084 	addi	r2,r2,2
    36fc:	1007883a 	mov	r3,r2
    3700:	e0bffe17 	ldw	r2,-8(fp)
    3704:	10c0040d 	sth	r3,16(r2)
	cpu->clock.c += 12;
    3708:	e0bffe17 	ldw	r2,-8(fp)
    370c:	10800017 	ldw	r2,0(r2)
    3710:	10c00304 	addi	r3,r2,12
    3714:	e0bffe17 	ldw	r2,-8(fp)
    3718:	10c00015 	stw	r3,0(r2)
}
    371c:	0001883a 	nop
    3720:	e6ffff04 	addi	sp,fp,-4
    3724:	dfc00217 	ldw	ra,8(sp)
    3728:	df000117 	ldw	fp,4(sp)
    372c:	dc000017 	ldw	r16,0(sp)
    3730:	dec00304 	addi	sp,sp,12
    3734:	f800283a 	ret

00003738 <LDsprr>:
void LDsprr(CPU* cpu, reg_name r1, reg_name r2) {
    3738:	defffb04 	addi	sp,sp,-20
    373c:	dfc00415 	stw	ra,16(sp)
    3740:	df000315 	stw	fp,12(sp)
    3744:	df000304 	addi	fp,sp,12
    3748:	e13ffd15 	stw	r4,-12(fp)
    374c:	e17ffe15 	stw	r5,-8(fp)
    3750:	e1bfff15 	stw	r6,-4(fp)
	wr16(cpu, SP, readAddr(cpu, r1, r2));
    3754:	e1bfff17 	ldw	r6,-4(fp)
    3758:	e17ffe17 	ldw	r5,-8(fp)
    375c:	e13ffd17 	ldw	r4,-12(fp)
    3760:	00032000 	call	3200 <readAddr>
    3764:	10bfffcc 	andi	r2,r2,65535
    3768:	100d883a 	mov	r6,r2
    376c:	01400304 	movi	r5,12
    3770:	e13ffd17 	ldw	r4,-12(fp)
    3774:	0002c780 	call	2c78 <wr16>
	cpu->clock.c += 8;
    3778:	e0bffd17 	ldw	r2,-12(fp)
    377c:	10800017 	ldw	r2,0(r2)
    3780:	10c00204 	addi	r3,r2,8
    3784:	e0bffd17 	ldw	r2,-12(fp)
    3788:	10c00015 	stw	r3,0(r2)
}
    378c:	0001883a 	nop
    3790:	e037883a 	mov	sp,fp
    3794:	dfc00117 	ldw	ra,4(sp)
    3798:	df000017 	ldw	fp,0(sp)
    379c:	dec00204 	addi	sp,sp,8
    37a0:	f800283a 	ret

000037a4 <LDnnar>:
void LDnnar(CPU* cpu, reg_name r1) {
    37a4:	defffa04 	addi	sp,sp,-24
    37a8:	dfc00515 	stw	ra,20(sp)
    37ac:	df000415 	stw	fp,16(sp)
    37b0:	dc000315 	stw	r16,12(sp)
    37b4:	df000404 	addi	fp,sp,16
    37b8:	e13ffd15 	stw	r4,-12(fp)
    37bc:	e17ffe15 	stw	r5,-8(fp)
	word addr = ((0x0000 + readData(cpu->registers.pc + 1)) << 8) + readData(cpu->registers.pc);
    37c0:	e0bffd17 	ldw	r2,-12(fp)
    37c4:	1080040b 	ldhu	r2,16(r2)
    37c8:	10800044 	addi	r2,r2,1
    37cc:	10bfffcc 	andi	r2,r2,65535
    37d0:	1009883a 	mov	r4,r2
    37d4:	000026c0 	call	26c <readData>
    37d8:	10803fcc 	andi	r2,r2,255
    37dc:	1004923a 	slli	r2,r2,8
    37e0:	1021883a 	mov	r16,r2
    37e4:	e0bffd17 	ldw	r2,-12(fp)
    37e8:	1080040b 	ldhu	r2,16(r2)
    37ec:	10bfffcc 	andi	r2,r2,65535
    37f0:	1009883a 	mov	r4,r2
    37f4:	000026c0 	call	26c <readData>
    37f8:	10803fcc 	andi	r2,r2,255
    37fc:	8085883a 	add	r2,r16,r2
    3800:	e0bffc0d 	sth	r2,-16(fp)
	writeData(addr, rr8(cpu, r1));
    3804:	e43ffc0b 	ldhu	r16,-16(fp)
    3808:	e17ffe17 	ldw	r5,-8(fp)
    380c:	e13ffd17 	ldw	r4,-12(fp)
    3810:	00029180 	call	2918 <rr8>
    3814:	10803fcc 	andi	r2,r2,255
    3818:	100b883a 	mov	r5,r2
    381c:	8009883a 	mov	r4,r16
    3820:	00003640 	call	364 <writeData>
	cpu->registers.pc += 2;
    3824:	e0bffd17 	ldw	r2,-12(fp)
    3828:	1080040b 	ldhu	r2,16(r2)
    382c:	10800084 	addi	r2,r2,2
    3830:	1007883a 	mov	r3,r2
    3834:	e0bffd17 	ldw	r2,-12(fp)
    3838:	10c0040d 	sth	r3,16(r2)
	cpu->clock.c += 16;
    383c:	e0bffd17 	ldw	r2,-12(fp)
    3840:	10800017 	ldw	r2,0(r2)
    3844:	10c00404 	addi	r3,r2,16
    3848:	e0bffd17 	ldw	r2,-12(fp)
    384c:	10c00015 	stw	r3,0(r2)
}
    3850:	0001883a 	nop
    3854:	e6ffff04 	addi	sp,fp,-4
    3858:	dfc00217 	ldw	ra,8(sp)
    385c:	df000117 	ldw	fp,4(sp)
    3860:	dc000017 	ldw	r16,0(sp)
    3864:	dec00304 	addi	sp,sp,12
    3868:	f800283a 	ret

0000386c <LDrnna>:
void LDrnna(CPU* cpu, reg_name r1) {
    386c:	defffa04 	addi	sp,sp,-24
    3870:	dfc00515 	stw	ra,20(sp)
    3874:	df000415 	stw	fp,16(sp)
    3878:	dc000315 	stw	r16,12(sp)
    387c:	df000404 	addi	fp,sp,16
    3880:	e13ffd15 	stw	r4,-12(fp)
    3884:	e17ffe15 	stw	r5,-8(fp)
	word addr = ((0x0000 + readData(cpu->registers.pc + 1)) << 8) + readData(cpu->registers.pc);
    3888:	e0bffd17 	ldw	r2,-12(fp)
    388c:	1080040b 	ldhu	r2,16(r2)
    3890:	10800044 	addi	r2,r2,1
    3894:	10bfffcc 	andi	r2,r2,65535
    3898:	1009883a 	mov	r4,r2
    389c:	000026c0 	call	26c <readData>
    38a0:	10803fcc 	andi	r2,r2,255
    38a4:	1004923a 	slli	r2,r2,8
    38a8:	1021883a 	mov	r16,r2
    38ac:	e0bffd17 	ldw	r2,-12(fp)
    38b0:	1080040b 	ldhu	r2,16(r2)
    38b4:	10bfffcc 	andi	r2,r2,65535
    38b8:	1009883a 	mov	r4,r2
    38bc:	000026c0 	call	26c <readData>
    38c0:	10803fcc 	andi	r2,r2,255
    38c4:	8085883a 	add	r2,r16,r2
    38c8:	e0bffc0d 	sth	r2,-16(fp)
	wr8(cpu, r1, readData(addr));
    38cc:	e0bffc0b 	ldhu	r2,-16(fp)
    38d0:	1009883a 	mov	r4,r2
    38d4:	000026c0 	call	26c <readData>
    38d8:	10803fcc 	andi	r2,r2,255
    38dc:	100d883a 	mov	r6,r2
    38e0:	e17ffe17 	ldw	r5,-8(fp)
    38e4:	e13ffd17 	ldw	r4,-12(fp)
    38e8:	0002b7c0 	call	2b7c <wr8>
	cpu->registers.pc += 2;
    38ec:	e0bffd17 	ldw	r2,-12(fp)
    38f0:	1080040b 	ldhu	r2,16(r2)
    38f4:	10800084 	addi	r2,r2,2
    38f8:	1007883a 	mov	r3,r2
    38fc:	e0bffd17 	ldw	r2,-12(fp)
    3900:	10c0040d 	sth	r3,16(r2)
	cpu->clock.c += 16;
    3904:	e0bffd17 	ldw	r2,-12(fp)
    3908:	10800017 	ldw	r2,0(r2)
    390c:	10c00404 	addi	r3,r2,16
    3910:	e0bffd17 	ldw	r2,-12(fp)
    3914:	10c00015 	stw	r3,0(r2)
}
    3918:	0001883a 	nop
    391c:	e6ffff04 	addi	sp,fp,-4
    3920:	dfc00217 	ldw	ra,8(sp)
    3924:	df000117 	ldw	fp,4(sp)
    3928:	dc000017 	ldw	r16,0(sp)
    392c:	dec00304 	addi	sp,sp,12
    3930:	f800283a 	ret

00003934 <LDrrspn>:
void LDrrspn(CPU* cpu, reg_name r1, reg_name r2) {
    3934:	defff604 	addi	sp,sp,-40
    3938:	dfc00915 	stw	ra,36(sp)
    393c:	df000815 	stw	fp,32(sp)
    3940:	df000804 	addi	fp,sp,32
    3944:	e13ffd15 	stw	r4,-12(fp)
    3948:	e17ffe15 	stw	r5,-8(fp)
    394c:	e1bfff15 	stw	r6,-4(fp)
	int rel = readData(cpu->registers.pc++);
    3950:	e0bffd17 	ldw	r2,-12(fp)
    3954:	1080040b 	ldhu	r2,16(r2)
    3958:	10c00044 	addi	r3,r2,1
    395c:	1809883a 	mov	r4,r3
    3960:	e0fffd17 	ldw	r3,-12(fp)
    3964:	1900040d 	sth	r4,16(r3)
    3968:	10bfffcc 	andi	r2,r2,65535
    396c:	1009883a 	mov	r4,r2
    3970:	000026c0 	call	26c <readData>
    3974:	10803fcc 	andi	r2,r2,255
    3978:	e0bff915 	stw	r2,-28(fp)
	rel = getSignedValue(rel);
    397c:	e0bff917 	ldw	r2,-28(fp)
    3980:	10803fcc 	andi	r2,r2,255
    3984:	1009883a 	mov	r4,r2
    3988:	000327c0 	call	327c <getSignedValue>
    398c:	e0bff915 	stw	r2,-28(fp)
	int val = cpu->registers.sp + rel;
    3990:	e0bffd17 	ldw	r2,-12(fp)
    3994:	1080048b 	ldhu	r2,18(r2)
    3998:	10ffffcc 	andi	r3,r2,65535
    399c:	e0bff917 	ldw	r2,-28(fp)
    39a0:	1885883a 	add	r2,r3,r2
    39a4:	e0bffa15 	stw	r2,-24(fp)
	int c = (cpu->registers.sp & 0xFF) + (rel & 0xFF) > 0xFF;
    39a8:	e0bffd17 	ldw	r2,-12(fp)
    39ac:	1080048b 	ldhu	r2,18(r2)
    39b0:	10bfffcc 	andi	r2,r2,65535
    39b4:	10c03fcc 	andi	r3,r2,255
    39b8:	e0bff917 	ldw	r2,-28(fp)
    39bc:	10803fcc 	andi	r2,r2,255
    39c0:	1885883a 	add	r2,r3,r2
    39c4:	10804008 	cmpgei	r2,r2,256
    39c8:	10803fcc 	andi	r2,r2,255
    39cc:	e0bffb15 	stw	r2,-20(fp)
	int h = (cpu->registers.sp & 0xF) + (rel & 0xF) > 0xF;
    39d0:	e0bffd17 	ldw	r2,-12(fp)
    39d4:	1080048b 	ldhu	r2,18(r2)
    39d8:	10bfffcc 	andi	r2,r2,65535
    39dc:	10c003cc 	andi	r3,r2,15
    39e0:	e0bff917 	ldw	r2,-28(fp)
    39e4:	108003cc 	andi	r2,r2,15
    39e8:	1885883a 	add	r2,r3,r2
    39ec:	10800408 	cmpgei	r2,r2,16
    39f0:	10803fcc 	andi	r2,r2,255
    39f4:	e0bffc15 	stw	r2,-16(fp)
	val &= 0xFFFF;
    39f8:	e0bffa17 	ldw	r2,-24(fp)
    39fc:	10bfffcc 	andi	r2,r2,65535
    3a00:	e0bffa15 	stw	r2,-24(fp)
	int f = 0;
    3a04:	e03ff815 	stw	zero,-32(fp)
	if(h) {
    3a08:	e0bffc17 	ldw	r2,-16(fp)
    3a0c:	10000326 	beq	r2,zero,3a1c <LDrrspn+0xe8>
		f |= 0x20;
    3a10:	e0bff817 	ldw	r2,-32(fp)
    3a14:	10800814 	ori	r2,r2,32
    3a18:	e0bff815 	stw	r2,-32(fp)
	}
	if(c) {
    3a1c:	e0bffb17 	ldw	r2,-20(fp)
    3a20:	10000326 	beq	r2,zero,3a30 <LDrrspn+0xfc>
		f |= 0x10;
    3a24:	e0bff817 	ldw	r2,-32(fp)
    3a28:	10800414 	ori	r2,r2,16
    3a2c:	e0bff815 	stw	r2,-32(fp)
	}
	wr8(cpu, F, f);
    3a30:	e0bff817 	ldw	r2,-32(fp)
    3a34:	10803fcc 	andi	r2,r2,255
    3a38:	100d883a 	mov	r6,r2
    3a3c:	01400144 	movi	r5,5
    3a40:	e13ffd17 	ldw	r4,-12(fp)
    3a44:	0002b7c0 	call	2b7c <wr8>
	wr8(cpu, r1, val >> 8);
    3a48:	e0bffa17 	ldw	r2,-24(fp)
    3a4c:	1005d23a 	srai	r2,r2,8
    3a50:	10803fcc 	andi	r2,r2,255
    3a54:	100d883a 	mov	r6,r2
    3a58:	e17ffe17 	ldw	r5,-8(fp)
    3a5c:	e13ffd17 	ldw	r4,-12(fp)
    3a60:	0002b7c0 	call	2b7c <wr8>
	wr8(cpu, r2, val & 0xFF);
    3a64:	e0bffa17 	ldw	r2,-24(fp)
    3a68:	10803fcc 	andi	r2,r2,255
    3a6c:	100d883a 	mov	r6,r2
    3a70:	e17fff17 	ldw	r5,-4(fp)
    3a74:	e13ffd17 	ldw	r4,-12(fp)
    3a78:	0002b7c0 	call	2b7c <wr8>
	cpu->clock.c += 12;
    3a7c:	e0bffd17 	ldw	r2,-12(fp)
    3a80:	10800017 	ldw	r2,0(r2)
    3a84:	10c00304 	addi	r3,r2,12
    3a88:	e0bffd17 	ldw	r2,-12(fp)
    3a8c:	10c00015 	stw	r3,0(r2)
}
    3a90:	0001883a 	nop
    3a94:	e037883a 	mov	sp,fp
    3a98:	dfc00117 	ldw	ra,4(sp)
    3a9c:	df000017 	ldw	fp,0(sp)
    3aa0:	dec00204 	addi	sp,sp,8
    3aa4:	f800283a 	ret

00003aa8 <LDnnsp>:
void LDnnsp(CPU* cpu) {
    3aa8:	defffb04 	addi	sp,sp,-20
    3aac:	dfc00415 	stw	ra,16(sp)
    3ab0:	df000315 	stw	fp,12(sp)
    3ab4:	dc000215 	stw	r16,8(sp)
    3ab8:	df000304 	addi	fp,sp,12
    3abc:	e13ffe15 	stw	r4,-8(fp)
	word addr = 0;
    3ac0:	e03ffd0d 	sth	zero,-12(fp)
	addr += readData(cpu->registers.pc++);
    3ac4:	e0bffe17 	ldw	r2,-8(fp)
    3ac8:	1080040b 	ldhu	r2,16(r2)
    3acc:	10c00044 	addi	r3,r2,1
    3ad0:	1809883a 	mov	r4,r3
    3ad4:	e0fffe17 	ldw	r3,-8(fp)
    3ad8:	1900040d 	sth	r4,16(r3)
    3adc:	10bfffcc 	andi	r2,r2,65535
    3ae0:	1009883a 	mov	r4,r2
    3ae4:	000026c0 	call	26c <readData>
    3ae8:	10c03fcc 	andi	r3,r2,255
    3aec:	e0bffd0b 	ldhu	r2,-12(fp)
    3af0:	1885883a 	add	r2,r3,r2
    3af4:	e0bffd0d 	sth	r2,-12(fp)
	word temp = readData(cpu->registers.pc++);
    3af8:	e0bffe17 	ldw	r2,-8(fp)
    3afc:	1080040b 	ldhu	r2,16(r2)
    3b00:	10c00044 	addi	r3,r2,1
    3b04:	1809883a 	mov	r4,r3
    3b08:	e0fffe17 	ldw	r3,-8(fp)
    3b0c:	1900040d 	sth	r4,16(r3)
    3b10:	10bfffcc 	andi	r2,r2,65535
    3b14:	1009883a 	mov	r4,r2
    3b18:	000026c0 	call	26c <readData>
    3b1c:	10803fcc 	andi	r2,r2,255
    3b20:	e0bffd8d 	sth	r2,-10(fp)
	temp = temp << 8;
    3b24:	e0bffd8b 	ldhu	r2,-10(fp)
    3b28:	1004923a 	slli	r2,r2,8
    3b2c:	e0bffd8d 	sth	r2,-10(fp)
	addr += temp;
    3b30:	e0fffd0b 	ldhu	r3,-12(fp)
    3b34:	e0bffd8b 	ldhu	r2,-10(fp)
    3b38:	1885883a 	add	r2,r3,r2
    3b3c:	e0bffd0d 	sth	r2,-12(fp)
	_LDav(cpu, addr, 0xFF & rr16(cpu, SP));
    3b40:	e43ffd0b 	ldhu	r16,-12(fp)
    3b44:	01400304 	movi	r5,12
    3b48:	e13ffe17 	ldw	r4,-8(fp)
    3b4c:	00029e80 	call	29e8 <rr16>
    3b50:	10803fcc 	andi	r2,r2,255
    3b54:	100d883a 	mov	r6,r2
    3b58:	800b883a 	mov	r5,r16
    3b5c:	e13ffe17 	ldw	r4,-8(fp)
    3b60:	0003c680 	call	3c68 <_LDav>
	_LDav(cpu, addr + 1, (rr16(cpu, SP) >> 8));
    3b64:	e0bffd0b 	ldhu	r2,-12(fp)
    3b68:	10800044 	addi	r2,r2,1
    3b6c:	143fffcc 	andi	r16,r2,65535
    3b70:	01400304 	movi	r5,12
    3b74:	e13ffe17 	ldw	r4,-8(fp)
    3b78:	00029e80 	call	29e8 <rr16>
    3b7c:	10bfffcc 	andi	r2,r2,65535
    3b80:	1004d23a 	srli	r2,r2,8
    3b84:	10803fcc 	andi	r2,r2,255
    3b88:	100d883a 	mov	r6,r2
    3b8c:	800b883a 	mov	r5,r16
    3b90:	e13ffe17 	ldw	r4,-8(fp)
    3b94:	0003c680 	call	3c68 <_LDav>
	cpu->clock.c += 20;
    3b98:	e0bffe17 	ldw	r2,-8(fp)
    3b9c:	10800017 	ldw	r2,0(r2)
    3ba0:	10c00504 	addi	r3,r2,20
    3ba4:	e0bffe17 	ldw	r2,-8(fp)
    3ba8:	10c00015 	stw	r3,0(r2)
}
    3bac:	0001883a 	nop
    3bb0:	e6ffff04 	addi	sp,fp,-4
    3bb4:	dfc00217 	ldw	ra,8(sp)
    3bb8:	df000117 	ldw	fp,4(sp)
    3bbc:	dc000017 	ldw	r16,0(sp)
    3bc0:	dec00304 	addi	sp,sp,12
    3bc4:	f800283a 	ret

00003bc8 <LDrran>:
void LDrran(CPU* cpu, reg_name r1, reg_name r2) {
    3bc8:	defff904 	addi	sp,sp,-28
    3bcc:	dfc00615 	stw	ra,24(sp)
    3bd0:	df000515 	stw	fp,20(sp)
    3bd4:	dc000415 	stw	r16,16(sp)
    3bd8:	df000504 	addi	fp,sp,20
    3bdc:	e13ffc15 	stw	r4,-16(fp)
    3be0:	e17ffd15 	stw	r5,-12(fp)
    3be4:	e1bffe15 	stw	r6,-8(fp)
	word addr = readAddr(cpu, r1, r2);
    3be8:	e1bffe17 	ldw	r6,-8(fp)
    3bec:	e17ffd17 	ldw	r5,-12(fp)
    3bf0:	e13ffc17 	ldw	r4,-16(fp)
    3bf4:	00032000 	call	3200 <readAddr>
    3bf8:	e0bffb0d 	sth	r2,-20(fp)
	_LDav(cpu, addr, readData(cpu->registers.pc++));
    3bfc:	e43ffb0b 	ldhu	r16,-20(fp)
    3c00:	e0bffc17 	ldw	r2,-16(fp)
    3c04:	1080040b 	ldhu	r2,16(r2)
    3c08:	10c00044 	addi	r3,r2,1
    3c0c:	1809883a 	mov	r4,r3
    3c10:	e0fffc17 	ldw	r3,-16(fp)
    3c14:	1900040d 	sth	r4,16(r3)
    3c18:	10bfffcc 	andi	r2,r2,65535
    3c1c:	1009883a 	mov	r4,r2
    3c20:	000026c0 	call	26c <readData>
    3c24:	10803fcc 	andi	r2,r2,255
    3c28:	100d883a 	mov	r6,r2
    3c2c:	800b883a 	mov	r5,r16
    3c30:	e13ffc17 	ldw	r4,-16(fp)
    3c34:	0003c680 	call	3c68 <_LDav>
	cpu->clock.c += 12;
    3c38:	e0bffc17 	ldw	r2,-16(fp)
    3c3c:	10800017 	ldw	r2,0(r2)
    3c40:	10c00304 	addi	r3,r2,12
    3c44:	e0bffc17 	ldw	r2,-16(fp)
    3c48:	10c00015 	stw	r3,0(r2)
}
    3c4c:	0001883a 	nop
    3c50:	e6ffff04 	addi	sp,fp,-4
    3c54:	dfc00217 	ldw	ra,8(sp)
    3c58:	df000117 	ldw	fp,4(sp)
    3c5c:	dc000017 	ldw	r16,0(sp)
    3c60:	dec00304 	addi	sp,sp,12
    3c64:	f800283a 	ret

00003c68 <_LDav>:
void _LDav(CPU* cpu, word addr, byte val) {
    3c68:	defffb04 	addi	sp,sp,-20
    3c6c:	dfc00415 	stw	ra,16(sp)
    3c70:	df000315 	stw	fp,12(sp)
    3c74:	df000304 	addi	fp,sp,12
    3c78:	e13ffd15 	stw	r4,-12(fp)
    3c7c:	2807883a 	mov	r3,r5
    3c80:	3005883a 	mov	r2,r6
    3c84:	e0fffe0d 	sth	r3,-8(fp)
    3c88:	e0bfff05 	stb	r2,-4(fp)
	writeData(addr, val);
    3c8c:	e0bffe0b 	ldhu	r2,-8(fp)
    3c90:	e0ffff03 	ldbu	r3,-4(fp)
    3c94:	180b883a 	mov	r5,r3
    3c98:	1009883a 	mov	r4,r2
    3c9c:	00003640 	call	364 <writeData>
}
    3ca0:	0001883a 	nop
    3ca4:	e037883a 	mov	sp,fp
    3ca8:	dfc00117 	ldw	ra,4(sp)
    3cac:	df000017 	ldw	fp,0(sp)
    3cb0:	dec00204 	addi	sp,sp,8
    3cb4:	f800283a 	ret

00003cb8 <LDHnar>:
void LDHnar(CPU* cpu, reg_name r1) {
    3cb8:	defffb04 	addi	sp,sp,-20
    3cbc:	dfc00415 	stw	ra,16(sp)
    3cc0:	df000315 	stw	fp,12(sp)
    3cc4:	dc000215 	stw	r16,8(sp)
    3cc8:	df000304 	addi	fp,sp,12
    3ccc:	e13ffd15 	stw	r4,-12(fp)
    3cd0:	e17ffe15 	stw	r5,-8(fp)
	writeData(0xFF00 + readData(cpu->registers.pc++), rr8(cpu, r1));
    3cd4:	e0bffd17 	ldw	r2,-12(fp)
    3cd8:	1080040b 	ldhu	r2,16(r2)
    3cdc:	10c00044 	addi	r3,r2,1
    3ce0:	1809883a 	mov	r4,r3
    3ce4:	e0fffd17 	ldw	r3,-12(fp)
    3ce8:	1900040d 	sth	r4,16(r3)
    3cec:	10bfffcc 	andi	r2,r2,65535
    3cf0:	1009883a 	mov	r4,r2
    3cf4:	000026c0 	call	26c <readData>
    3cf8:	10803fcc 	andi	r2,r2,255
    3cfc:	10bfc004 	addi	r2,r2,-256
    3d00:	143fffcc 	andi	r16,r2,65535
    3d04:	e17ffe17 	ldw	r5,-8(fp)
    3d08:	e13ffd17 	ldw	r4,-12(fp)
    3d0c:	00029180 	call	2918 <rr8>
    3d10:	10803fcc 	andi	r2,r2,255
    3d14:	100b883a 	mov	r5,r2
    3d18:	8009883a 	mov	r4,r16
    3d1c:	00003640 	call	364 <writeData>
	cpu->clock.c += 12;
    3d20:	e0bffd17 	ldw	r2,-12(fp)
    3d24:	10800017 	ldw	r2,0(r2)
    3d28:	10c00304 	addi	r3,r2,12
    3d2c:	e0bffd17 	ldw	r2,-12(fp)
    3d30:	10c00015 	stw	r3,0(r2)
}
    3d34:	0001883a 	nop
    3d38:	e6ffff04 	addi	sp,fp,-4
    3d3c:	dfc00217 	ldw	ra,8(sp)
    3d40:	df000117 	ldw	fp,4(sp)
    3d44:	dc000017 	ldw	r16,0(sp)
    3d48:	dec00304 	addi	sp,sp,12
    3d4c:	f800283a 	ret

00003d50 <LDHrna>:
void LDHrna(CPU* cpu, reg_name r1) {
    3d50:	defffc04 	addi	sp,sp,-16
    3d54:	dfc00315 	stw	ra,12(sp)
    3d58:	df000215 	stw	fp,8(sp)
    3d5c:	df000204 	addi	fp,sp,8
    3d60:	e13ffe15 	stw	r4,-8(fp)
    3d64:	e17fff15 	stw	r5,-4(fp)
	wr8(cpu, r1, readData(0xFF00 + readData(cpu->registers.pc++)));
    3d68:	e0bffe17 	ldw	r2,-8(fp)
    3d6c:	1080040b 	ldhu	r2,16(r2)
    3d70:	10c00044 	addi	r3,r2,1
    3d74:	1809883a 	mov	r4,r3
    3d78:	e0fffe17 	ldw	r3,-8(fp)
    3d7c:	1900040d 	sth	r4,16(r3)
    3d80:	10bfffcc 	andi	r2,r2,65535
    3d84:	1009883a 	mov	r4,r2
    3d88:	000026c0 	call	26c <readData>
    3d8c:	10803fcc 	andi	r2,r2,255
    3d90:	10bfc004 	addi	r2,r2,-256
    3d94:	10bfffcc 	andi	r2,r2,65535
    3d98:	1009883a 	mov	r4,r2
    3d9c:	000026c0 	call	26c <readData>
    3da0:	10803fcc 	andi	r2,r2,255
    3da4:	100d883a 	mov	r6,r2
    3da8:	e17fff17 	ldw	r5,-4(fp)
    3dac:	e13ffe17 	ldw	r4,-8(fp)
    3db0:	0002b7c0 	call	2b7c <wr8>
	cpu->clock.c += 12;
    3db4:	e0bffe17 	ldw	r2,-8(fp)
    3db8:	10800017 	ldw	r2,0(r2)
    3dbc:	10c00304 	addi	r3,r2,12
    3dc0:	e0bffe17 	ldw	r2,-8(fp)
    3dc4:	10c00015 	stw	r3,0(r2)
}
    3dc8:	0001883a 	nop
    3dcc:	e037883a 	mov	sp,fp
    3dd0:	dfc00117 	ldw	ra,4(sp)
    3dd4:	df000017 	ldw	fp,0(sp)
    3dd8:	dec00204 	addi	sp,sp,8
    3ddc:	f800283a 	ret

00003de0 <INCrr>:
void INCrr(CPU* cpu, reg_name r1, reg_name r2) {
    3de0:	defffb04 	addi	sp,sp,-20
    3de4:	dfc00415 	stw	ra,16(sp)
    3de8:	df000315 	stw	fp,12(sp)
    3dec:	df000304 	addi	fp,sp,12
    3df0:	e13ffd15 	stw	r4,-12(fp)
    3df4:	e17ffe15 	stw	r5,-8(fp)
    3df8:	e1bfff15 	stw	r6,-4(fp)
	wr8(cpu, r2, (rr8(cpu, r2) + 1) & 0xFF);
    3dfc:	e17fff17 	ldw	r5,-4(fp)
    3e00:	e13ffd17 	ldw	r4,-12(fp)
    3e04:	00029180 	call	2918 <rr8>
    3e08:	10800044 	addi	r2,r2,1
    3e0c:	10803fcc 	andi	r2,r2,255
    3e10:	100d883a 	mov	r6,r2
    3e14:	e17fff17 	ldw	r5,-4(fp)
    3e18:	e13ffd17 	ldw	r4,-12(fp)
    3e1c:	0002b7c0 	call	2b7c <wr8>
	if(rr8(cpu, r2) == 0) {
    3e20:	e17fff17 	ldw	r5,-4(fp)
    3e24:	e13ffd17 	ldw	r4,-12(fp)
    3e28:	00029180 	call	2918 <rr8>
    3e2c:	10803fcc 	andi	r2,r2,255
    3e30:	1000091e 	bne	r2,zero,3e58 <INCrr+0x78>
		wr8(cpu, r1, (rr8(cpu, r1) + 1) & 0xFF);
    3e34:	e17ffe17 	ldw	r5,-8(fp)
    3e38:	e13ffd17 	ldw	r4,-12(fp)
    3e3c:	00029180 	call	2918 <rr8>
    3e40:	10800044 	addi	r2,r2,1
    3e44:	10803fcc 	andi	r2,r2,255
    3e48:	100d883a 	mov	r6,r2
    3e4c:	e17ffe17 	ldw	r5,-8(fp)
    3e50:	e13ffd17 	ldw	r4,-12(fp)
    3e54:	0002b7c0 	call	2b7c <wr8>
	}
	cpu->clock.c += 8;
    3e58:	e0bffd17 	ldw	r2,-12(fp)
    3e5c:	10800017 	ldw	r2,0(r2)
    3e60:	10c00204 	addi	r3,r2,8
    3e64:	e0bffd17 	ldw	r2,-12(fp)
    3e68:	10c00015 	stw	r3,0(r2)
}
    3e6c:	0001883a 	nop
    3e70:	e037883a 	mov	sp,fp
    3e74:	dfc00117 	ldw	ra,4(sp)
    3e78:	df000017 	ldw	fp,0(sp)
    3e7c:	dec00204 	addi	sp,sp,8
    3e80:	f800283a 	ret

00003e84 <INCrra>:
void INCrra(CPU* cpu, reg_name r1, reg_name r2) {
    3e84:	defff804 	addi	sp,sp,-32
    3e88:	dfc00715 	stw	ra,28(sp)
    3e8c:	df000615 	stw	fp,24(sp)
    3e90:	df000604 	addi	fp,sp,24
    3e94:	e13ffd15 	stw	r4,-12(fp)
    3e98:	e17ffe15 	stw	r5,-8(fp)
    3e9c:	e1bfff15 	stw	r6,-4(fp)
	word addr = readAddr(cpu, r1, r2);
    3ea0:	e1bfff17 	ldw	r6,-4(fp)
    3ea4:	e17ffe17 	ldw	r5,-8(fp)
    3ea8:	e13ffd17 	ldw	r4,-12(fp)
    3eac:	00032000 	call	3200 <readAddr>
    3eb0:	e0bffa0d 	sth	r2,-24(fp)
	byte val = (readData(addr) + 1) & 0xFF;
    3eb4:	e0bffa0b 	ldhu	r2,-24(fp)
    3eb8:	1009883a 	mov	r4,r2
    3ebc:	000026c0 	call	26c <readData>
    3ec0:	10800044 	addi	r2,r2,1
    3ec4:	e0bffa85 	stb	r2,-22(fp)
	int z = val == 0;
    3ec8:	e0bffa83 	ldbu	r2,-22(fp)
    3ecc:	1005003a 	cmpeq	r2,r2,zero
    3ed0:	10803fcc 	andi	r2,r2,255
    3ed4:	e0bffb15 	stw	r2,-20(fp)
	int h = (readData(addr) & 0xF) + 1 > 0xF;
    3ed8:	e0bffa0b 	ldhu	r2,-24(fp)
    3edc:	1009883a 	mov	r4,r2
    3ee0:	000026c0 	call	26c <readData>
    3ee4:	10803fcc 	andi	r2,r2,255
    3ee8:	108003cc 	andi	r2,r2,15
    3eec:	10800044 	addi	r2,r2,1
    3ef0:	10800408 	cmpgei	r2,r2,16
    3ef4:	10803fcc 	andi	r2,r2,255
    3ef8:	e0bffc15 	stw	r2,-16(fp)
	writeData(addr, val);
    3efc:	e0bffa0b 	ldhu	r2,-24(fp)
    3f00:	e0fffa83 	ldbu	r3,-22(fp)
    3f04:	180b883a 	mov	r5,r3
    3f08:	1009883a 	mov	r4,r2
    3f0c:	00003640 	call	364 <writeData>
	cpu->registers.f &= 0x10;
    3f10:	e0bffd17 	ldw	r2,-12(fp)
    3f14:	108003c3 	ldbu	r2,15(r2)
    3f18:	1080040c 	andi	r2,r2,16
    3f1c:	1007883a 	mov	r3,r2
    3f20:	e0bffd17 	ldw	r2,-12(fp)
    3f24:	10c003c5 	stb	r3,15(r2)
	if(h) cpu->registers.f |= 0x20;
    3f28:	e0bffc17 	ldw	r2,-16(fp)
    3f2c:	10000626 	beq	r2,zero,3f48 <INCrra+0xc4>
    3f30:	e0bffd17 	ldw	r2,-12(fp)
    3f34:	108003c3 	ldbu	r2,15(r2)
    3f38:	10800814 	ori	r2,r2,32
    3f3c:	1007883a 	mov	r3,r2
    3f40:	e0bffd17 	ldw	r2,-12(fp)
    3f44:	10c003c5 	stb	r3,15(r2)
	if(z) cpu->registers.f |= 0x80;
    3f48:	e0bffb17 	ldw	r2,-20(fp)
    3f4c:	10000726 	beq	r2,zero,3f6c <INCrra+0xe8>
    3f50:	e0bffd17 	ldw	r2,-12(fp)
    3f54:	10c003c3 	ldbu	r3,15(r2)
    3f58:	00bfe004 	movi	r2,-128
    3f5c:	1884b03a 	or	r2,r3,r2
    3f60:	1007883a 	mov	r3,r2
    3f64:	e0bffd17 	ldw	r2,-12(fp)
    3f68:	10c003c5 	stb	r3,15(r2)
	cpu->clock.c += 12;
    3f6c:	e0bffd17 	ldw	r2,-12(fp)
    3f70:	10800017 	ldw	r2,0(r2)
    3f74:	10c00304 	addi	r3,r2,12
    3f78:	e0bffd17 	ldw	r2,-12(fp)
    3f7c:	10c00015 	stw	r3,0(r2)
}
    3f80:	0001883a 	nop
    3f84:	e037883a 	mov	sp,fp
    3f88:	dfc00117 	ldw	ra,4(sp)
    3f8c:	df000017 	ldw	fp,0(sp)
    3f90:	dec00204 	addi	sp,sp,8
    3f94:	f800283a 	ret

00003f98 <INCsp>:
void INCsp(CPU* cpu) {
    3f98:	defffd04 	addi	sp,sp,-12
    3f9c:	dfc00215 	stw	ra,8(sp)
    3fa0:	df000115 	stw	fp,4(sp)
    3fa4:	df000104 	addi	fp,sp,4
    3fa8:	e13fff15 	stw	r4,-4(fp)
	wr16(cpu, SP, cpu->registers.sp + 1);
    3fac:	e0bfff17 	ldw	r2,-4(fp)
    3fb0:	1080048b 	ldhu	r2,18(r2)
    3fb4:	10800044 	addi	r2,r2,1
    3fb8:	10bfffcc 	andi	r2,r2,65535
    3fbc:	100d883a 	mov	r6,r2
    3fc0:	01400304 	movi	r5,12
    3fc4:	e13fff17 	ldw	r4,-4(fp)
    3fc8:	0002c780 	call	2c78 <wr16>
	cpu->registers.sp &= 0xFFFF;
    3fcc:	e0bfff17 	ldw	r2,-4(fp)
    3fd0:	10c0048b 	ldhu	r3,18(r2)
    3fd4:	e0bfff17 	ldw	r2,-4(fp)
    3fd8:	10c0048d 	sth	r3,18(r2)
	cpu->clock.c += 8;
    3fdc:	e0bfff17 	ldw	r2,-4(fp)
    3fe0:	10800017 	ldw	r2,0(r2)
    3fe4:	10c00204 	addi	r3,r2,8
    3fe8:	e0bfff17 	ldw	r2,-4(fp)
    3fec:	10c00015 	stw	r3,0(r2)
}
    3ff0:	0001883a 	nop
    3ff4:	e037883a 	mov	sp,fp
    3ff8:	dfc00117 	ldw	ra,4(sp)
    3ffc:	df000017 	ldw	fp,0(sp)
    4000:	dec00204 	addi	sp,sp,8
    4004:	f800283a 	ret

00004008 <INCr>:
void INCr(CPU* cpu, reg_name r1) {
    4008:	defffa04 	addi	sp,sp,-24
    400c:	dfc00515 	stw	ra,20(sp)
    4010:	df000415 	stw	fp,16(sp)
    4014:	df000404 	addi	fp,sp,16
    4018:	e13ffe15 	stw	r4,-8(fp)
    401c:	e17fff15 	stw	r5,-4(fp)
	int h = ((rr8(cpu, r1) & 0xF) + 1) & 0x10;
    4020:	e17fff17 	ldw	r5,-4(fp)
    4024:	e13ffe17 	ldw	r4,-8(fp)
    4028:	00029180 	call	2918 <rr8>
    402c:	10803fcc 	andi	r2,r2,255
    4030:	108003cc 	andi	r2,r2,15
    4034:	10800044 	addi	r2,r2,1
    4038:	1080040c 	andi	r2,r2,16
    403c:	e0bffc15 	stw	r2,-16(fp)
	wr8(cpu, r1, (rr8(cpu, r1) + 1) & 0xFF);
    4040:	e17fff17 	ldw	r5,-4(fp)
    4044:	e13ffe17 	ldw	r4,-8(fp)
    4048:	00029180 	call	2918 <rr8>
    404c:	10800044 	addi	r2,r2,1
    4050:	10803fcc 	andi	r2,r2,255
    4054:	100d883a 	mov	r6,r2
    4058:	e17fff17 	ldw	r5,-4(fp)
    405c:	e13ffe17 	ldw	r4,-8(fp)
    4060:	0002b7c0 	call	2b7c <wr8>
	int z = rr8(cpu, r1) == 0;
    4064:	e17fff17 	ldw	r5,-4(fp)
    4068:	e13ffe17 	ldw	r4,-8(fp)
    406c:	00029180 	call	2918 <rr8>
    4070:	10803fcc 	andi	r2,r2,255
    4074:	1005003a 	cmpeq	r2,r2,zero
    4078:	10803fcc 	andi	r2,r2,255
    407c:	e0bffd15 	stw	r2,-12(fp)
	cpu->registers.f &= 0x10;
    4080:	e0bffe17 	ldw	r2,-8(fp)
    4084:	108003c3 	ldbu	r2,15(r2)
    4088:	1080040c 	andi	r2,r2,16
    408c:	1007883a 	mov	r3,r2
    4090:	e0bffe17 	ldw	r2,-8(fp)
    4094:	10c003c5 	stb	r3,15(r2)
	if(h) cpu->registers.f |= 0x20;
    4098:	e0bffc17 	ldw	r2,-16(fp)
    409c:	10000626 	beq	r2,zero,40b8 <INCr+0xb0>
    40a0:	e0bffe17 	ldw	r2,-8(fp)
    40a4:	108003c3 	ldbu	r2,15(r2)
    40a8:	10800814 	ori	r2,r2,32
    40ac:	1007883a 	mov	r3,r2
    40b0:	e0bffe17 	ldw	r2,-8(fp)
    40b4:	10c003c5 	stb	r3,15(r2)
	if(z) cpu->registers.f |= 0x80;
    40b8:	e0bffd17 	ldw	r2,-12(fp)
    40bc:	10000726 	beq	r2,zero,40dc <INCr+0xd4>
    40c0:	e0bffe17 	ldw	r2,-8(fp)
    40c4:	10c003c3 	ldbu	r3,15(r2)
    40c8:	00bfe004 	movi	r2,-128
    40cc:	1884b03a 	or	r2,r3,r2
    40d0:	1007883a 	mov	r3,r2
    40d4:	e0bffe17 	ldw	r2,-8(fp)
    40d8:	10c003c5 	stb	r3,15(r2)
	cpu->clock.c += 4;
    40dc:	e0bffe17 	ldw	r2,-8(fp)
    40e0:	10800017 	ldw	r2,0(r2)
    40e4:	10c00104 	addi	r3,r2,4
    40e8:	e0bffe17 	ldw	r2,-8(fp)
    40ec:	10c00015 	stw	r3,0(r2)
}
    40f0:	0001883a 	nop
    40f4:	e037883a 	mov	sp,fp
    40f8:	dfc00117 	ldw	ra,4(sp)
    40fc:	df000017 	ldw	fp,0(sp)
    4100:	dec00204 	addi	sp,sp,8
    4104:	f800283a 	ret

00004108 <DECrr>:
void DECrr(CPU* cpu, reg_name r1, reg_name r2) {
    4108:	defffb04 	addi	sp,sp,-20
    410c:	dfc00415 	stw	ra,16(sp)
    4110:	df000315 	stw	fp,12(sp)
    4114:	df000304 	addi	fp,sp,12
    4118:	e13ffd15 	stw	r4,-12(fp)
    411c:	e17ffe15 	stw	r5,-8(fp)
    4120:	e1bfff15 	stw	r6,-4(fp)
	wr8(cpu, r2, (rr8(cpu, r2) - 1) & 0xFF);
    4124:	e17fff17 	ldw	r5,-4(fp)
    4128:	e13ffd17 	ldw	r4,-12(fp)
    412c:	00029180 	call	2918 <rr8>
    4130:	10bfffc4 	addi	r2,r2,-1
    4134:	10803fcc 	andi	r2,r2,255
    4138:	100d883a 	mov	r6,r2
    413c:	e17fff17 	ldw	r5,-4(fp)
    4140:	e13ffd17 	ldw	r4,-12(fp)
    4144:	0002b7c0 	call	2b7c <wr8>
	if(rr8(cpu, r2) == 0xFF) wr8(cpu, r1, (rr8(cpu, r1) - 1) & 0xFF);
    4148:	e17fff17 	ldw	r5,-4(fp)
    414c:	e13ffd17 	ldw	r4,-12(fp)
    4150:	00029180 	call	2918 <rr8>
    4154:	10803fcc 	andi	r2,r2,255
    4158:	10803fd8 	cmpnei	r2,r2,255
    415c:	1000091e 	bne	r2,zero,4184 <DECrr+0x7c>
    4160:	e17ffe17 	ldw	r5,-8(fp)
    4164:	e13ffd17 	ldw	r4,-12(fp)
    4168:	00029180 	call	2918 <rr8>
    416c:	10bfffc4 	addi	r2,r2,-1
    4170:	10803fcc 	andi	r2,r2,255
    4174:	100d883a 	mov	r6,r2
    4178:	e17ffe17 	ldw	r5,-8(fp)
    417c:	e13ffd17 	ldw	r4,-12(fp)
    4180:	0002b7c0 	call	2b7c <wr8>
	cpu->clock.c += 8;
    4184:	e0bffd17 	ldw	r2,-12(fp)
    4188:	10800017 	ldw	r2,0(r2)
    418c:	10c00204 	addi	r3,r2,8
    4190:	e0bffd17 	ldw	r2,-12(fp)
    4194:	10c00015 	stw	r3,0(r2)
}
    4198:	0001883a 	nop
    419c:	e037883a 	mov	sp,fp
    41a0:	dfc00117 	ldw	ra,4(sp)
    41a4:	df000017 	ldw	fp,0(sp)
    41a8:	dec00204 	addi	sp,sp,8
    41ac:	f800283a 	ret

000041b0 <DECsp>:
void DECsp(CPU* cpu) {
    41b0:	defffd04 	addi	sp,sp,-12
    41b4:	dfc00215 	stw	ra,8(sp)
    41b8:	df000115 	stw	fp,4(sp)
    41bc:	df000104 	addi	fp,sp,4
    41c0:	e13fff15 	stw	r4,-4(fp)
	wr16(cpu, SP, rr16(cpu, SP) - 1);
    41c4:	01400304 	movi	r5,12
    41c8:	e13fff17 	ldw	r4,-4(fp)
    41cc:	00029e80 	call	29e8 <rr16>
    41d0:	10bfffc4 	addi	r2,r2,-1
    41d4:	10bfffcc 	andi	r2,r2,65535
    41d8:	100d883a 	mov	r6,r2
    41dc:	01400304 	movi	r5,12
    41e0:	e13fff17 	ldw	r4,-4(fp)
    41e4:	0002c780 	call	2c78 <wr16>
	cpu->registers.sp &= 0xFFFF;
    41e8:	e0bfff17 	ldw	r2,-4(fp)
    41ec:	10c0048b 	ldhu	r3,18(r2)
    41f0:	e0bfff17 	ldw	r2,-4(fp)
    41f4:	10c0048d 	sth	r3,18(r2)
	cpu->clock.c += 8;
    41f8:	e0bfff17 	ldw	r2,-4(fp)
    41fc:	10800017 	ldw	r2,0(r2)
    4200:	10c00204 	addi	r3,r2,8
    4204:	e0bfff17 	ldw	r2,-4(fp)
    4208:	10c00015 	stw	r3,0(r2)
}
    420c:	0001883a 	nop
    4210:	e037883a 	mov	sp,fp
    4214:	dfc00117 	ldw	ra,4(sp)
    4218:	df000017 	ldw	fp,0(sp)
    421c:	dec00204 	addi	sp,sp,8
    4220:	f800283a 	ret

00004224 <DECr>:
void DECr(CPU* cpu, reg_name r1) {
    4224:	defffa04 	addi	sp,sp,-24
    4228:	dfc00515 	stw	ra,20(sp)
    422c:	df000415 	stw	fp,16(sp)
    4230:	df000404 	addi	fp,sp,16
    4234:	e13ffe15 	stw	r4,-8(fp)
    4238:	e17fff15 	stw	r5,-4(fp)
	int h = (rr8(cpu, r1) & 0xF) < 1;
    423c:	e17fff17 	ldw	r5,-4(fp)
    4240:	e13ffe17 	ldw	r4,-8(fp)
    4244:	00029180 	call	2918 <rr8>
    4248:	10803fcc 	andi	r2,r2,255
    424c:	108003cc 	andi	r2,r2,15
    4250:	0084403a 	cmpge	r2,zero,r2
    4254:	10803fcc 	andi	r2,r2,255
    4258:	e0bffc15 	stw	r2,-16(fp)
	wr8(cpu, r1, (rr8(cpu, r1) - 1) & 0xFF);
    425c:	e17fff17 	ldw	r5,-4(fp)
    4260:	e13ffe17 	ldw	r4,-8(fp)
    4264:	00029180 	call	2918 <rr8>
    4268:	10bfffc4 	addi	r2,r2,-1
    426c:	10803fcc 	andi	r2,r2,255
    4270:	100d883a 	mov	r6,r2
    4274:	e17fff17 	ldw	r5,-4(fp)
    4278:	e13ffe17 	ldw	r4,-8(fp)
    427c:	0002b7c0 	call	2b7c <wr8>
	int z = rr8(cpu, r1) == 0;
    4280:	e17fff17 	ldw	r5,-4(fp)
    4284:	e13ffe17 	ldw	r4,-8(fp)
    4288:	00029180 	call	2918 <rr8>
    428c:	10803fcc 	andi	r2,r2,255
    4290:	1005003a 	cmpeq	r2,r2,zero
    4294:	10803fcc 	andi	r2,r2,255
    4298:	e0bffd15 	stw	r2,-12(fp)
	cpu->registers.f &= 0x10;
    429c:	e0bffe17 	ldw	r2,-8(fp)
    42a0:	108003c3 	ldbu	r2,15(r2)
    42a4:	1080040c 	andi	r2,r2,16
    42a8:	1007883a 	mov	r3,r2
    42ac:	e0bffe17 	ldw	r2,-8(fp)
    42b0:	10c003c5 	stb	r3,15(r2)
	cpu->registers.f |= 0x40;
    42b4:	e0bffe17 	ldw	r2,-8(fp)
    42b8:	108003c3 	ldbu	r2,15(r2)
    42bc:	10801014 	ori	r2,r2,64
    42c0:	1007883a 	mov	r3,r2
    42c4:	e0bffe17 	ldw	r2,-8(fp)
    42c8:	10c003c5 	stb	r3,15(r2)
	if(h) cpu->registers.f |= 0x20;
    42cc:	e0bffc17 	ldw	r2,-16(fp)
    42d0:	10000626 	beq	r2,zero,42ec <DECr+0xc8>
    42d4:	e0bffe17 	ldw	r2,-8(fp)
    42d8:	108003c3 	ldbu	r2,15(r2)
    42dc:	10800814 	ori	r2,r2,32
    42e0:	1007883a 	mov	r3,r2
    42e4:	e0bffe17 	ldw	r2,-8(fp)
    42e8:	10c003c5 	stb	r3,15(r2)
	if(z) cpu->registers.f |= 0x80;
    42ec:	e0bffd17 	ldw	r2,-12(fp)
    42f0:	10000726 	beq	r2,zero,4310 <DECr+0xec>
    42f4:	e0bffe17 	ldw	r2,-8(fp)
    42f8:	10c003c3 	ldbu	r3,15(r2)
    42fc:	00bfe004 	movi	r2,-128
    4300:	1884b03a 	or	r2,r3,r2
    4304:	1007883a 	mov	r3,r2
    4308:	e0bffe17 	ldw	r2,-8(fp)
    430c:	10c003c5 	stb	r3,15(r2)
	cpu->clock.c += 4;
    4310:	e0bffe17 	ldw	r2,-8(fp)
    4314:	10800017 	ldw	r2,0(r2)
    4318:	10c00104 	addi	r3,r2,4
    431c:	e0bffe17 	ldw	r2,-8(fp)
    4320:	10c00015 	stw	r3,0(r2)
}
    4324:	0001883a 	nop
    4328:	e037883a 	mov	sp,fp
    432c:	dfc00117 	ldw	ra,4(sp)
    4330:	df000017 	ldw	fp,0(sp)
    4334:	dec00204 	addi	sp,sp,8
    4338:	f800283a 	ret

0000433c <DECrra>:
void DECrra(CPU* cpu, reg_name r1, reg_name r2) {
    433c:	defff804 	addi	sp,sp,-32
    4340:	dfc00715 	stw	ra,28(sp)
    4344:	df000615 	stw	fp,24(sp)
    4348:	df000604 	addi	fp,sp,24
    434c:	e13ffd15 	stw	r4,-12(fp)
    4350:	e17ffe15 	stw	r5,-8(fp)
    4354:	e1bfff15 	stw	r6,-4(fp)
	word addr = readAddr(cpu, r1, r2);
    4358:	e1bfff17 	ldw	r6,-4(fp)
    435c:	e17ffe17 	ldw	r5,-8(fp)
    4360:	e13ffd17 	ldw	r4,-12(fp)
    4364:	00032000 	call	3200 <readAddr>
    4368:	e0bffa0d 	sth	r2,-24(fp)
	byte val = (readData(addr) - 1) & 0xFF;
    436c:	e0bffa0b 	ldhu	r2,-24(fp)
    4370:	1009883a 	mov	r4,r2
    4374:	000026c0 	call	26c <readData>
    4378:	10bfffc4 	addi	r2,r2,-1
    437c:	e0bffa85 	stb	r2,-22(fp)
	int z = val == 0;
    4380:	e0bffa83 	ldbu	r2,-22(fp)
    4384:	1005003a 	cmpeq	r2,r2,zero
    4388:	10803fcc 	andi	r2,r2,255
    438c:	e0bffb15 	stw	r2,-20(fp)
	int h = (readData(addr) * 0xF) < 1;
    4390:	e0bffa0b 	ldhu	r2,-24(fp)
    4394:	1009883a 	mov	r4,r2
    4398:	000026c0 	call	26c <readData>
    439c:	10803fcc 	andi	r2,r2,255
    43a0:	014003c4 	movi	r5,15
    43a4:	1009883a 	mov	r4,r2
    43a8:	000cefc0 	call	cefc <__mulsi3>
    43ac:	0084403a 	cmpge	r2,zero,r2
    43b0:	10803fcc 	andi	r2,r2,255
    43b4:	e0bffc15 	stw	r2,-16(fp)
	writeData(addr, val);
    43b8:	e0bffa0b 	ldhu	r2,-24(fp)
    43bc:	e0fffa83 	ldbu	r3,-22(fp)
    43c0:	180b883a 	mov	r5,r3
    43c4:	1009883a 	mov	r4,r2
    43c8:	00003640 	call	364 <writeData>
	cpu->registers.f &= 0x10;
    43cc:	e0bffd17 	ldw	r2,-12(fp)
    43d0:	108003c3 	ldbu	r2,15(r2)
    43d4:	1080040c 	andi	r2,r2,16
    43d8:	1007883a 	mov	r3,r2
    43dc:	e0bffd17 	ldw	r2,-12(fp)
    43e0:	10c003c5 	stb	r3,15(r2)
	cpu->registers.f |= 0x40;
    43e4:	e0bffd17 	ldw	r2,-12(fp)
    43e8:	108003c3 	ldbu	r2,15(r2)
    43ec:	10801014 	ori	r2,r2,64
    43f0:	1007883a 	mov	r3,r2
    43f4:	e0bffd17 	ldw	r2,-12(fp)
    43f8:	10c003c5 	stb	r3,15(r2)
	if(h) cpu->registers.f |= 0x20;
    43fc:	e0bffc17 	ldw	r2,-16(fp)
    4400:	10000626 	beq	r2,zero,441c <DECrra+0xe0>
    4404:	e0bffd17 	ldw	r2,-12(fp)
    4408:	108003c3 	ldbu	r2,15(r2)
    440c:	10800814 	ori	r2,r2,32
    4410:	1007883a 	mov	r3,r2
    4414:	e0bffd17 	ldw	r2,-12(fp)
    4418:	10c003c5 	stb	r3,15(r2)
	if(z) cpu->registers.f |= 0x80;
    441c:	e0bffb17 	ldw	r2,-20(fp)
    4420:	10000726 	beq	r2,zero,4440 <DECrra+0x104>
    4424:	e0bffd17 	ldw	r2,-12(fp)
    4428:	10c003c3 	ldbu	r3,15(r2)
    442c:	00bfe004 	movi	r2,-128
    4430:	1884b03a 	or	r2,r3,r2
    4434:	1007883a 	mov	r3,r2
    4438:	e0bffd17 	ldw	r2,-12(fp)
    443c:	10c003c5 	stb	r3,15(r2)
	cpu->clock.c += 12;
    4440:	e0bffd17 	ldw	r2,-12(fp)
    4444:	10800017 	ldw	r2,0(r2)
    4448:	10c00304 	addi	r3,r2,12
    444c:	e0bffd17 	ldw	r2,-12(fp)
    4450:	10c00015 	stw	r3,0(r2)
}
    4454:	0001883a 	nop
    4458:	e037883a 	mov	sp,fp
    445c:	dfc00117 	ldw	ra,4(sp)
    4460:	df000017 	ldw	fp,0(sp)
    4464:	dec00204 	addi	sp,sp,8
    4468:	f800283a 	ret

0000446c <ADDrr>:
void _ADDrrn(CPU* cpu, reg_name r1, reg_name r2, word n);
void _ADDrn(CPU* cpu, reg_name r1, byte n);
void ADDrr(CPU* cpu, reg_name r1, reg_name r2) {
    446c:	defffa04 	addi	sp,sp,-24
    4470:	dfc00515 	stw	ra,20(sp)
    4474:	df000415 	stw	fp,16(sp)
    4478:	df000404 	addi	fp,sp,16
    447c:	e13ffd15 	stw	r4,-12(fp)
    4480:	e17ffe15 	stw	r5,-8(fp)
    4484:	e1bfff15 	stw	r6,-4(fp)
	byte n = rr8(cpu, r2);
    4488:	e17fff17 	ldw	r5,-4(fp)
    448c:	e13ffd17 	ldw	r4,-12(fp)
    4490:	00029180 	call	2918 <rr8>
    4494:	e0bffc05 	stb	r2,-16(fp)
	_ADDrn(cpu, r1, n);
    4498:	e0bffc03 	ldbu	r2,-16(fp)
    449c:	100d883a 	mov	r6,r2
    44a0:	e17ffe17 	ldw	r5,-8(fp)
    44a4:	e13ffd17 	ldw	r4,-12(fp)
    44a8:	00045580 	call	4558 <_ADDrn>
	cpu->clock.c += 4;
    44ac:	e0bffd17 	ldw	r2,-12(fp)
    44b0:	10800017 	ldw	r2,0(r2)
    44b4:	10c00104 	addi	r3,r2,4
    44b8:	e0bffd17 	ldw	r2,-12(fp)
    44bc:	10c00015 	stw	r3,0(r2)
}
    44c0:	0001883a 	nop
    44c4:	e037883a 	mov	sp,fp
    44c8:	dfc00117 	ldw	ra,4(sp)
    44cc:	df000017 	ldw	fp,0(sp)
    44d0:	dec00204 	addi	sp,sp,8
    44d4:	f800283a 	ret

000044d8 <ADDrn>:
void ADDrn(CPU* cpu, reg_name r1) {
    44d8:	defffb04 	addi	sp,sp,-20
    44dc:	dfc00415 	stw	ra,16(sp)
    44e0:	df000315 	stw	fp,12(sp)
    44e4:	df000304 	addi	fp,sp,12
    44e8:	e13ffe15 	stw	r4,-8(fp)
    44ec:	e17fff15 	stw	r5,-4(fp)
	byte n = readData(cpu->registers.pc++);
    44f0:	e0bffe17 	ldw	r2,-8(fp)
    44f4:	1080040b 	ldhu	r2,16(r2)
    44f8:	10c00044 	addi	r3,r2,1
    44fc:	1809883a 	mov	r4,r3
    4500:	e0fffe17 	ldw	r3,-8(fp)
    4504:	1900040d 	sth	r4,16(r3)
    4508:	10bfffcc 	andi	r2,r2,65535
    450c:	1009883a 	mov	r4,r2
    4510:	000026c0 	call	26c <readData>
    4514:	e0bffd05 	stb	r2,-12(fp)
	_ADDrn(cpu, r1, n);
    4518:	e0bffd03 	ldbu	r2,-12(fp)
    451c:	100d883a 	mov	r6,r2
    4520:	e17fff17 	ldw	r5,-4(fp)
    4524:	e13ffe17 	ldw	r4,-8(fp)
    4528:	00045580 	call	4558 <_ADDrn>
	cpu->clock.c += 8;
    452c:	e0bffe17 	ldw	r2,-8(fp)
    4530:	10800017 	ldw	r2,0(r2)
    4534:	10c00204 	addi	r3,r2,8
    4538:	e0bffe17 	ldw	r2,-8(fp)
    453c:	10c00015 	stw	r3,0(r2)
}
    4540:	0001883a 	nop
    4544:	e037883a 	mov	sp,fp
    4548:	dfc00117 	ldw	ra,4(sp)
    454c:	df000017 	ldw	fp,0(sp)
    4550:	dec00204 	addi	sp,sp,8
    4554:	f800283a 	ret

00004558 <_ADDrn>:
void _ADDrn(CPU* cpu, reg_name r1, byte n) {
    4558:	defff704 	addi	sp,sp,-36
    455c:	dfc00815 	stw	ra,32(sp)
    4560:	df000715 	stw	fp,28(sp)
    4564:	df000704 	addi	fp,sp,28
    4568:	e13ffd15 	stw	r4,-12(fp)
    456c:	e17ffe15 	stw	r5,-8(fp)
    4570:	3005883a 	mov	r2,r6
    4574:	e0bfff05 	stb	r2,-4(fp)
	int h = ((rr8(cpu, r1) & 0xF) + (n & 0xF)) & 0x10;
    4578:	e17ffe17 	ldw	r5,-8(fp)
    457c:	e13ffd17 	ldw	r4,-12(fp)
    4580:	00029180 	call	2918 <rr8>
    4584:	10803fcc 	andi	r2,r2,255
    4588:	10c003cc 	andi	r3,r2,15
    458c:	e0bfff03 	ldbu	r2,-4(fp)
    4590:	108003cc 	andi	r2,r2,15
    4594:	1885883a 	add	r2,r3,r2
    4598:	1080040c 	andi	r2,r2,16
    459c:	e0bffb15 	stw	r2,-20(fp)
	int newVal = rr8(cpu, r1);
    45a0:	e17ffe17 	ldw	r5,-8(fp)
    45a4:	e13ffd17 	ldw	r4,-12(fp)
    45a8:	00029180 	call	2918 <rr8>
    45ac:	10803fcc 	andi	r2,r2,255
    45b0:	e0bffc15 	stw	r2,-16(fp)
	newVal += n;
    45b4:	e0bfff03 	ldbu	r2,-4(fp)
    45b8:	e0fffc17 	ldw	r3,-16(fp)
    45bc:	1885883a 	add	r2,r3,r2
    45c0:	e0bffc15 	stw	r2,-16(fp)
	int c = 0;
    45c4:	e03ff915 	stw	zero,-28(fp)
	if(newVal > 255) {
    45c8:	e0bffc17 	ldw	r2,-16(fp)
    45cc:	10804010 	cmplti	r2,r2,256
    45d0:	1000021e 	bne	r2,zero,45dc <_ADDrn+0x84>
		c = 1;
    45d4:	00800044 	movi	r2,1
    45d8:	e0bff915 	stw	r2,-28(fp)
	}
	wr8(cpu, r1, rr8(cpu, r1) + n);
    45dc:	e17ffe17 	ldw	r5,-8(fp)
    45e0:	e13ffd17 	ldw	r4,-12(fp)
    45e4:	00029180 	call	2918 <rr8>
    45e8:	1007883a 	mov	r3,r2
    45ec:	e0bfff03 	ldbu	r2,-4(fp)
    45f0:	1885883a 	add	r2,r3,r2
    45f4:	10803fcc 	andi	r2,r2,255
    45f8:	100d883a 	mov	r6,r2
    45fc:	e17ffe17 	ldw	r5,-8(fp)
    4600:	e13ffd17 	ldw	r4,-12(fp)
    4604:	0002b7c0 	call	2b7c <wr8>
	byte f = 0;
    4608:	e03ffa05 	stb	zero,-24(fp)
	if(rr8(cpu, r1) == 0) f |= 0x80;
    460c:	e17ffe17 	ldw	r5,-8(fp)
    4610:	e13ffd17 	ldw	r4,-12(fp)
    4614:	00029180 	call	2918 <rr8>
    4618:	10803fcc 	andi	r2,r2,255
    461c:	1000041e 	bne	r2,zero,4630 <_ADDrn+0xd8>
    4620:	e0fffa03 	ldbu	r3,-24(fp)
    4624:	00bfe004 	movi	r2,-128
    4628:	1884b03a 	or	r2,r3,r2
    462c:	e0bffa05 	stb	r2,-24(fp)
	if(h) f |= 0x20;
    4630:	e0bffb17 	ldw	r2,-20(fp)
    4634:	10000326 	beq	r2,zero,4644 <_ADDrn+0xec>
    4638:	e0bffa03 	ldbu	r2,-24(fp)
    463c:	10800814 	ori	r2,r2,32
    4640:	e0bffa05 	stb	r2,-24(fp)
	if(c) f |= 0x10;
    4644:	e0bff917 	ldw	r2,-28(fp)
    4648:	10000326 	beq	r2,zero,4658 <_ADDrn+0x100>
    464c:	e0bffa03 	ldbu	r2,-24(fp)
    4650:	10800414 	ori	r2,r2,16
    4654:	e0bffa05 	stb	r2,-24(fp)
	wr8(cpu, F, f);
    4658:	e0bffa03 	ldbu	r2,-24(fp)
    465c:	100d883a 	mov	r6,r2
    4660:	01400144 	movi	r5,5
    4664:	e13ffd17 	ldw	r4,-12(fp)
    4668:	0002b7c0 	call	2b7c <wr8>
}
    466c:	0001883a 	nop
    4670:	e037883a 	mov	sp,fp
    4674:	dfc00117 	ldw	ra,4(sp)
    4678:	df000017 	ldw	fp,0(sp)
    467c:	dec00204 	addi	sp,sp,8
    4680:	f800283a 	ret

00004684 <ADDrrrr>:
void ADDrrrr(CPU* cpu, reg_name r1, reg_name r2, reg_name r3, reg_name r4) {
    4684:	defff804 	addi	sp,sp,-32
    4688:	dfc00715 	stw	ra,28(sp)
    468c:	df000615 	stw	fp,24(sp)
    4690:	dc000515 	stw	r16,20(sp)
    4694:	df000604 	addi	fp,sp,24
    4698:	e13ffb15 	stw	r4,-20(fp)
    469c:	e17ffc15 	stw	r5,-16(fp)
    46a0:	e1bffd15 	stw	r6,-12(fp)
    46a4:	e1fffe15 	stw	r7,-8(fp)
	word n = rr8(cpu, r3);
    46a8:	e17ffe17 	ldw	r5,-8(fp)
    46ac:	e13ffb17 	ldw	r4,-20(fp)
    46b0:	00029180 	call	2918 <rr8>
    46b4:	10803fcc 	andi	r2,r2,255
    46b8:	e0bffa0d 	sth	r2,-24(fp)
	n = (n << 8) + rr8(cpu, r4);
    46bc:	e0bffa0b 	ldhu	r2,-24(fp)
    46c0:	1004923a 	slli	r2,r2,8
    46c4:	1021883a 	mov	r16,r2
    46c8:	e1400217 	ldw	r5,8(fp)
    46cc:	e13ffb17 	ldw	r4,-20(fp)
